
/var/folders/v9/f__p9fts3m97z080r3qqv_q00000gn/T/arduino_build_184109/JB_CPU_Usage_Basic1_Serial.ino.elf:     file format elf32-avr

Contents of section .data:
 800100 c0c62d00 00000000 f6005f00 8d004301  ..-......._...C.
 800110 be009c00 b0004c6f 6f70733a 20002e20  ......Loops: .. 
 800120 54696d65 3a200020 5b6d735d 000d0a00  Time: . [ms]....
Contents of section .text:
 0000 0c943500 0c945d00 0c945d00 0c945d00  ..5...]...]...].
 0010 0c945d00 0c945d00 0c945d00 0c945d00  ..]...]...]...].
 0020 0c945d00 0c945d00 0c945d00 0c945d00  ..]...]...]...].
 0030 0c945d00 0c945d00 0c945d00 0c945d00  ..]...]...]...].
 0040 0c94c401 0c945d00 0c943402 0c940e02  ......]...4.....
 0050 0c945d00 0c945d00 0c945d00 0c945d00  ..]...]...]...].
 0060 0c945d00 0c945d00 48031124 1fbecfef  ..]...].H..$....
 0070 d8e0debf cdbf11e0 a0e0b1e0 e8e4f7e0  ................
 0080 02c00590 0d92a033 b107d9f7 21e0a0e3  .......3....!...
 0090 b1e001c0 1d92aa3d b207e1f7 10e0c5e3  .......=........
 00a0 d0e004c0 2197fe01 0e949703 c433d107  ....!........3..
 00b0 c9f70e94 66020c94 a2030c94 0000cf92  ....f...........
 00c0 df92ef92 ff920f93 1f93cf93 df936c01  ..............l.
 00d0 7a018b01 c0e0d0e0 ce15df05 81f0d801  z...............
 00e0 6d918d01 d601ed91 fc910190 f081e02d  m..............-
 00f0 c6010995 892b11f0 2196eecf 7e01c701  .....+..!...~...
 0100 df91cf91 1f910f91 ff90ef90 df90cf90  ................
 0110 08950895 80e090e0 0895fc01 538d448d  ............S.D.
 0120 252f30e0 842f90e0 821b930b 541710f0  %/0../......T...
 0130 cf960895 01970895 fc01918d 828d9817  ................
 0140 61f0828d df01a80f b11d5d96 8c91928d  a.........].....
 0150 9f5f9f73 928f90e0 08958fef 9fef0895  ._.s............
 0160 fc01918d 828d9817 31f0828d e80ff11d  ........1.......
 0170 858d90e0 08958fef 9fef0895 fc01918d  ................
 0180 228d892f 90e0805c 9f4f821b 91098f73  "../...\.O.....s
 0190 99270895 8de391e0 0e94be00 21e0892b  .'..........!..+
 01a0 09f420e0 822f0895 fc01848d df01a80f  .. ../..........
 01b0 b11da35a bf4f2c91 848d90e0 01968f73  ...Z.O,........s
 01c0 9927848f a689b789 2c93a089 b1898c91  .'......,.......
 01d0 83708064 8c93938d 848d9813 06c00288  .p.d............
 01e0 f389e02d 80818f7d 80830895 ef92ff92  ...-...}........
 01f0 0f931f93 cf93df93 ec0181e0 888f9b8d  ................
 0200 8c8d9813 05c0e889 f9898081 85fd26c0  ..............&.
 0210 f62e0b8d 10e00f5f 1f4f0f73 1127e02e  ......._.O.s.'..
 0220 8c8de812 0cc00fb6 07fcfacf e889f989  ................
 0230 808185ff f5cfce01 0e94d400 f1cf8b8d  ................
 0240 fe01e80f f11de35a ff4ff082 9fb7f894  .......Z.O......
 0250 0b8fea89 fb898081 80620ac0 9fb7f894  .........b......
 0260 ee89ff89 6083e889 f9898081 83708064  ....`........p.d
 0270 80839fbf 81e090e0 df91cf91 1f910f91  ................
 0280 ff90ef90 0895cf93 df93ec01 888d8823  ...............#
 0290 c9f0ea89 fb898081 85fd05c0 a889b989  ................
 02a0 8c9186fd 0fc00fb6 07fcf5cf 808185ff  ................
 02b0 f2cfa889 b9898c91 85ffedcf ce010e94  ................
 02c0 d400e7cf df91cf91 089580e0 90e0892b  ...............+
 02d0 29f00e94 ca008111 0c940000 08950097  )...............
 02e0 69f0fc01 01900020 e9f73197 af01481b  i...... ..1...H.
 02f0 590bbc01 8de391e0 0c945f00 80e090e0  Y........._.....
 0300 08958f92 9f92af92 bf920f93 1f93cf93  ................
 0310 df93cdb7 deb7a197 0fb6f894 debf0fbe  ................
 0320 cdbf19a2 423008f4 4ae08e01 0f5d1f4f  ....B0..J....].O
 0330 842e912c a12cb12c a5019401 0e947503  ...,.,.,......u.
 0340 e62fb901 ca010150 1109ea30 14f4e05d  ./.....P...0...]
 0350 01c0e95c d801ec93 232b242b 252b61f7  ...\....#+$+%+a.
 0360 c8010e94 6f01a196 0fb6f894 debf0fbe  ....o...........
 0370 cdbfdf91 cf911f91 0f91bf90 af909f90  ................
 0380 8f900895 0e949d03 1f920f92 0fb60f92  ................
 0390 11242f93 3f938f93 9f93af93 bf938091  .$/.?...........
 03a0 39019091 3a01a091 3b01b091 3c013091  9...:...;...<.0.
 03b0 380123e0 230f2d37 20f40196 a11db11d  8.#.#.-7 .......
 03c0 05c026e8 230f0296 a11db11d 20933801  ..&.#....... .8.
 03d0 80933901 90933a01 a0933b01 b0933c01  ..9...:...;...<.
 03e0 80913401 90913501 a0913601 b0913701  ..4...5...6...7.
 03f0 0196a11d b11d8093 34019093 3501a093  ........4...5...
 0400 3601b093 3701bf91 af919f91 8f913f91  6...7.........?.
 0410 2f910f90 0fbe0f90 1f901895 1f920f92  /...............
 0420 0fb60f92 11242f93 3f934f93 5f936f93  .....$/.?.O._.o.
 0430 7f938f93 9f93af93 bf93ef93 ff938de3  ................
 0440 91e00e94 d400ff91 ef91bf91 af919f91  ................
 0450 8f917f91 6f915f91 4f913f91 2f910f90  ....o._.O.?./...
 0460 0fbe0f90 1f901895 1f920f92 0fb60f92  ................
 0470 11242f93 8f939f93 ef93ff93 e0914d01  .$/...........M.
 0480 f0914e01 8081e091 5301f091 540182fd  ..N.....S...T...
 0490 12c09081 80915601 8f5f8f73 20915701  ......V.._.s .W.
 04a0 821751f0 e0915601 f0e0e35c fe4f958f  ..Q...V....\.O..
 04b0 80935601 01c08081 ff91ef91 9f918f91  ..V.............
 04c0 2f910f90 0fbe0f90 1f901895 789484b5  /...........x...
 04d0 826084bd 84b58160 84bd85b5 826085bd  .`.....`.....`..
 04e0 85b58160 85bd8091 6e008160 80936e00  ...`....n..`..n.
 04f0 10928100 80918100 82608093 81008091  .........`......
 0500 81008160 80938100 80918000 81608093  ...`.........`..
 0510 80008091 b1008460 8093b100 8091b000  .......`........
 0520 81608093 b0008091 7a008460 80937a00  .`......z..`..z.
 0530 80917a00 82608093 7a008091 7a008160  ..z..`..z...z..`
 0540 80937a00 80917a00 80688093 7a001092  ..z...z..h..z...
 0550 c100e091 4d01f091 4e0182e0 8083e091  ....M...N.......
 0560 4d01f091 4e011082 e0914901 f0914a01  M...N.....I...J.
 0570 1082e091 4b01f091 4c0180e1 80831092  ....K...L.......
 0580 5501e091 5101f091 520186e0 8083e091  U...Q...R.......
 0590 4f01f091 50018081 80618083 e0914f01  O...P....a....O.
 05a0 f0915001 80818860 8083e091 4f01f091  ..P....`....O...
 05b0 50018081 80688083 e0914f01 f0915001  P....h....O...P.
 05c0 80818f7d 80832fb7 f8948091 39019091  ...}../.....9...
 05d0 3a01a091 3b01b091 3c012fbf 80933001  :...;...<./...0.
 05e0 90933101 a0933201 b0933301 80910001  ..1...2...3.....
 05f0 90910101 a0910201 b0910301 ac01bd01  ................
 0600 41505109 61097109 40930001 50930101  APQ.a.q.@...P...
 0610 60930201 70930301 892b8a2b 8b2ba9f5  `...p....+.+.+..
 0620 8fb7f894 c0903901 d0903a01 e0903b01  ......9...:...;.
 0630 f0903c01 8fbf86e1 91e00e94 6f014ae0  ..<.........o.J.
 0640 60ec76ec 8de290e0 0e948101 8ee191e0  `.v.............
 0650 0e946f01 80913001 90913101 a0913201  ..o...0...1...2.
 0660 b0913301 a7019601 281b390b 4a0b5b0b  ..3.....(.9.J.[.
 0670 ca01b901 4ae00e94 810187e2 91e00e94  ....J...........
 0680 6f018de2 91e00e94 6f010e94 6501aecf  o.......o...e...
 0690 ede3f1e0 13821282 88ee93e0 a0e0b0e0  ................
 06a0 84839583 a683b783 88e091e0 91838083  ................
 06b0 85ec90e0 95878487 84ec90e0 97878687  ................
 06c0 80ec90e0 918b808b 81ec90e0 938b828b  ................
 06d0 82ec90e0 958b848b 86ec90e0 978b868b  ................
 06e0 118e128e 138e148e 0895a1e2 1a2eaa1b  ................
 06f0 bb1bfd01 0dc0aa1f bb1fee1f ff1fa217  ................
 0700 b307e407 f50720f0 a21bb30b e40bf50b  ...... .........
 0710 661f771f 881f991f 1a9469f7 60957095  f.w.......i.`.p.
 0720 80959095 9b01ac01 bd01cf01 0895ee0f  ................
 0730 ff1f0590 f491e02d 099481e0 90e0f894  .......-........
 0740 0c94a203 f894ffcf                    ........        
Contents of section .comment:
 0000 4743433a 2028474e 55292035 2e342e30  GCC: (GNU) 5.4.0
 0010 00                                   .               
Contents of section .note.gnu.avr.deviceinfo:
 0000 04000000 2d000000 01000000 41565200  ....-.......AVR.
 0010 00000000 00800000 00010000 00080000  ................
 0020 00000000 00040000 08000000 01000000  ................
 0030 0061746d 65676133 32387000 00000000  .atmega328p.....
Contents of section .debug_aranges:
 0000 2c000000 0200f405 00000400 00000000  ,...............
 0010 be000000 0e040000 cc040000 c4010000  ................
 0020 90060000 5a000000 00000000 00000000  ....Z...........
 0030 1c000000 0200a218 00000400 00000000  ................
 0040 44070000 04000000 00000000 00000000  D...............
 0050 1c000000 02005019 00000400 00000000  ......P.........
 0060 ea060000 44000000 00000000 00000000  ....D...........
 0070 1c000000 0200fe19 00000400 00000000  ................
 0080 76000000 16000000 00000000 00000000  v...............
 0090 1c000000 0200ac1a 00000400 00000000  ................
 00a0 8c000000 10000000 00000000 00000000  ................
 00b0 1c000000 02005a1b 00000400 00000000  ......Z.........
 00c0 9c000000 16000000 00000000 00000000  ................
 00d0 1c000000 0200081c 00000400 00000000  ................
 00e0 2e070000 0c000000 00000000 00000000  ................
Contents of section .debug_info:
 0000 f0050000 02000000 00000401 00000000  ................
 0010 00000000 020f0000 00010803 17000000  ................
 0020 02070414 00000005 1b000000 ff030006  ................
 0030 20000000 00002200 00000105 03000081   .....".........
 0040 00072900 00000000 14000000 010503c6  ..).............
 0050 00800008 2e000000 00001400 00000105  ................
 0060 03c00080 00093500 00000000 14000000  ......5.........
 0070 010503c1 0080000a 3c000000 00001400  ........<.......
 0080 00000105 03c20080 000b4300 00000000  ..........C.....
 0090 1b000000 010503c4 0080000c 49000000  ............I...
 00a0 00001400 00000105 03bd0080 000d4f00  ..............O.
 00b0 00000000 14000000 010503b8 0080000e  ................
 00c0 54000000 00001400 00000105 03bc0080  T...............
 00d0 000f5900 00000000 14000000 010503b9  ..Y.............
 00e0 00800010 5e000000 00001400 00000105  ....^...........
 00f0 03bb0080 00116300 00000000 14000000  ......c.........
 0100 010503ba 00800012 68000000 00001400  ........h.......
 0110 00000105 036f0080 00136f00 00000000  .....o....o.....
 0120 14000000 01050336 00800014 75000000  .......6....u...
 0130 00001400 00000105 03800080 00157c00  ..............|.
 0140 00000000 14000000 01050381 00800016  ................
 0150 83000000 00001400 00000105 03820080  ................
 0160 00178a00 00000000 1b000000 01050384  ................
 0170 00800018 90000000 00001b00 00000105  ................
 0180 03880080 00199600 00000000 1b000000  ................
 0190 0105038a 0080001a 9c000000 00001b00  ................
 01a0 00000105 03860080 001ba100 00000000  ................
 01b0 14000000 01050343 0080001c a7000000  .......C........
 01c0 00001400 00000105 03700080 001dae00  .........p......
 01d0 00000000 14000000 01050337 0080001e  ...........7....
 01e0 b4000000 00001400 00000105 03b00080  ................
 01f0 001fbb00 00000000 14000000 010503b1  ................
 0200 00800020 c2000000 00001400 00000105  ... ............
 0210 03b20080 0021c800 00000000 14000000  .....!..........
 0220 010503b4 00800022 ce000000 00001400  ......."........
 0230 00000105 03b30080 0023d400 00000000  .........#......
 0240 14000000 010503b6 00800024 d9000000  ...........$....
 0250 00001400 00000105 03430080 0025df00  .........C...%..
 0260 00000000 14000000 0105037c 00800026  ...........|...&
 0270 e5000000 00001b00 00000105 03780080  .............x..
 0280 0027e900 00000000 14000000 0105037a  .'.............z
 0290 00800028 f0000000 00001400 00000105  ...(............
 02a0 037b0080 0029f700 00000000 14000000  .{...)..........
 02b0 0105037e 0080002a fd000000 00001400  ...~...*........
 02c0 00000105 03500080 002b0201 00000000  .....P...+......
 02d0 14000000 0105037f 0080002c 08010000  ...........,....
 02e0 00001400 00000105 03250080 002d0e01  .........%...-..
 02f0 00000000 14000000 01050324 0080002e  ...........$....
 0300 13010000 00001400 00000105 03230080  .............#..
 0310 002f1801 00000000 14000000 01050328  ./.............(
 0320 00800030 1e010000 00001400 00000105  ...0............
 0330 03270080 00312301 00000000 14000000  .'...1#.........
 0340 01050326 00800032 28010000 00001400  ...&...2(.......
 0350 00000105 032b0080 00332e01 00000000  .....+...3......
 0360 14000000 0105032a 00800034 33010000  .......*...43...
 0370 00001400 00000105 03290080 00353801  .........)...58.
 0380 00000000 14000000 01050348 00800036  ...........H...6
 0390 3e010000 00001400 00000105 03470080  >............G..
 03a0 00374401 00000000 14000000 01050346  .7D............F
 03b0 00800038 4a010000 00001400 00000105  ...8J...........
 03c0 03450080 00395101 00000000 14000000  .E...9Q.........
 03d0 01050344 0080003a 58010000 00001400  ...D...:X.......
 03e0 00000105 036e0080 003b5f01 00000000  .....n...;_.....
 03f0 14000000 01050335 0080003c 65010000  .......5...<e...
 0400 00001400 00000105 03430080 003d6b01  .........C...=k.
 0410 00000000 14000000 01050369 0080003e  ...........i...>
 0420 71010000 00001400 00000105 033d0080  q............=..
 0430 003f7701 00000000 14000000 0105033c  .?w............<
 0440 00800040 7c010000 00001400 00000105  ...@|...........
 0450 03680080 00418201 00000000 14000000  .h...A..........
 0460 0105036d 00800042 89010000 00001400  ...m...B........
 0470 00000105 036c0080 00439001 00000000  .....l...C......
 0480 14000000 0105036b 00800044 97010000  .......k...D....
 0490 00001400 00000105 033b0080 00459d01  .........;...E..
 04a0 00000000 14000000 0105034e 00800046  ...........N...F
 04b0 a2010000 00001400 00000105 034d0080  .............M..
 04c0 0047a701 00000000 14000000 0105034c  .G.............L
 04d0 00800048 ac010000 00001400 00000105  ...H............
 04e0 03600080 0049b301 00000000 14000000  .`...I..........
 04f0 01050364 0080004a b7010000 00001400  ...d...J........
 0500 00000105 03660080 004bbe01 00000000  .....f...K......
 0510 14000000 01050361 0080004c c4010000  .......a...L....
 0520 00001400 00000105 035f0080 004dc901  ........._...M..
 0530 00000000 1b000000 0105035d 0080004e  ...........]...N
 0540 cc010000 00001400 00000105 03570080  .............W..
 0550 004fd301 00000000 14000000 01050355  .O.............U
 0560 00800050 d9010000 00001400 00000105  ...P............
 0570 03540080 0051df01 00000000 14000000  .T...Q..........
 0580 01050353 00800052 e4010000 00001400  ...S...R........
 0590 00000105 034b0080 0053eb01 00000000  .....K...S......
 05a0 14000000 0105034a 00800054 f2010000  .......J...T....
 05b0 00001400 00000105 033e0080 0055f901  .........>...U..
 05c0 00000000 1b000000 01050341 00800056  ...........A...V
 05d0 fe010000 00001400 00000105 03400080  .............@..
 05e0 00570302 00000000 14000000 0105033f  .W.............?
 05f0 00800000 aa120000 0200a205 00000401  ................
 0600 18040000 028a0300 00000000 00000000  ................
 0610 00000000 001a0000 00020223 0600002f  ...........#.../
 0620 00000003 3a000000 3a000000 04000502  ....:...:.......
 0630 05696e74 00060d05 00000402 25410000  .int........%A..
 0640 00640100 00070705 00006401 00000223  .d........d....#
 0650 0001084d 02000002 283a0000 00022302  ...M....(:....#.
 0660 03097005 0000017e 016a0100 00018200  ..p....~.j......
 0670 00008900 00000a4c 07000001 00097005  .......L......p.
 0680 0000018a 016a0100 00019e00 0000aa00  .....j..........
 0690 00000a4c 07000001 0b3e0200 000009ed  ...L.....>......
 06a0 04000001 67016a01 000001bf 000000d0  ....g.j.........
 06b0 0000000a 4c070000 010b3702 00000b3a  ....L.....7....:
 06c0 00000000 09ed0400 00013e01 6a010000  ..........>.j...
 06d0 01e50000 00f10000 000a4c07 0000010b  ..........L.....
 06e0 3e020000 000ca903 000001cb 016a0100  >............j..
 06f0 00030107 01000018 0100000a 4c070000  ............L...
 0700 010b3702 00000b87 02000000 09280200  ..7..........(..
 0710 00023401 6a010000 012d0100 00390100  ..4.j....-...9..
 0720 000a4c07 0000010b 3e020000 000d2802  ..L.....>.....(.
 0730 00000122 016a0100 00010210 01410000  ...".j.......A..
 0740 00015201 00000a4c 07000001 0b740800  ..R....L.....t..
 0750 000b6a01 00000000 0e022500 00000f73  ..j.......%....s
 0760 0200000c d8750100 00100207 18050000  .....u..........
 0770 100106d5 03000006 4c050000 0c0a31cf  ........L.....1.
 0780 010000cf 01000011 cf010000 02230001  .............#..
 0790 08460600 000a3437 02000002 23040208  .F....47....#...
 07a0 c7060000 0a353702 00000223 08021251  .....57....#...Q
 07b0 0300000a 3f0101c7 0100000a 78060000  ....?.......x...
 07c0 01000013 0d050000 01370200 00142e02  .........7......
 07d0 0000025a 01010210 03cf0100 0001f201  ...Z............
 07e0 0000f901 00000ae4 08000001 00157103  ..............q.
 07f0 0000023f 013a0000 00010210 02cf0100  ...?.:..........
 0800 00011602 00001d02 00000ae4 08000001  ................
 0810 00160151 03000002 2e230300 0001012f  ...Q.....#...../
 0820 0200000a e4080000 01000010 04071305  ................
 0830 00000e02 44020000 177c0100 00064c05  ....D....|....L.
 0840 00000c0a 31810200 00810200 00118102  ....1...........
 0850 00000223 00010846 0600000a 34370200  ...#...F....47..
 0860 00022304 0208c706 00000a35 37020000  ..#........57...
 0870 02230802 00180d05 0000010f 0c030000  .#..............
 0880 0d7e9202 00001001 08cc0300 000fb006  .~..............
 0890 00000e3b 87020000 0fb50300 000e4087  ...;..........@.
 08a0 02000010 01023103 000006d4 0500009d  ......1.........
 08b0 0e5d8102 00000005 00001149 02000002  .].........I....
 08c0 23000108 83030000 0e600b05 00000223  #........`.....#
 08d0 0c02083f 0600000e 610b0500 0002230e  ...?....a.....#.
 08e0 02089b06 00000e62 0b050000 02231002  .......b.....#..
 08f0 08a20600 000e630b 05000002 23120208  ......c.....#...
 0900 a9060000 0e640b05 00000223 140208d4  .....d.....#....
 0910 0600000e 650b0500 00022316 02080207  ....e.....#.....
 0920 00000e67 af020000 02231802 08360300  ...g.....#...6..
 0930 000e6910 05000002 23190208 18020000  ..i.....#.......
 0940 0e6a1005 00000223 1a020808 0200000e  .j.....#........
 0950 6b150500 0002231b 0208f005 00000e6c  k.....#........l
 0960 15050000 02231c02 08d90600 000e711a  .....#........q.
 0970 05000002 231d0208 53050000 0e721a05  ....#...S....r..
 0980 00000223 5d0219a1 02000001 01021003  ...#]...........
 0990 b6020000 0101aa03 0000b103 00000a47  ...............G
 09a0 05000001 001a0006 0000016a 01000001  ...........j....
 09b0 021000b6 02000001 01cd0300 00d90300  ................
 09c0 000a4705 0000010b 87020000 001b8f02  ..G.............
 09d0 00000375 0101ea03 0000fb03 00000a47  ...u...........G
 09e0 05000001 0b370200 000b3105 00000015  .....7....1.....
 09f0 71030000 03c0013a 00000001 021002b6  q......:........
 0a00 02000001 18040000 1f040000 0a470500  .............G..
 0a10 00010015 4c030000 03b4013a 00000001  ....L......:....
 0a20 021005b6 02000001 3c040000 43040000  ........<...C...
 0a30 0a470500 00010015 5e030000 03ab013a  .G......^......:
 0a40 00000001 021006b6 02000001 60040000  ............`...
 0a50 67040000 0a470500 00010015 69020000  g....G......i...
 0a60 03a6013a 00000001 021004b6 02000001  ...:............
 0a70 84040000 8b040000 0a470500 0001001c  .........G......
 0a80 6b060000 0101019b 040000a2 0400000a  k...............
 0a90 47050000 01001b5e 05000003 590101b3  G......^....Y...
 0aa0 040000ba 0400000a 47050000 01001528  ........G......(
 0ab0 02000003 e1016a01 00000102 1000b602  ......j.........
 0ac0 000001d7 040000e3 0400000a 47050000  ............G...
 0ad0 010b8702 0000001d 2e020000 03cd0101  ................
 0ae0 021003b6 02000001 f8040000 0a470500  .............G..
 0af0 00010000 0e020605 00001e87 02000017  ................
 0b00 00050000 1ea40200 001e9902 00001f92  ................
 0b10 0200002a 05000020 2a050000 3f001002  ...*... *...?...
 0b20 07860200 000fa403 00000f7e 87020000  ...........~....
 0b30 0ffe0400 000d8075 0100000e 02b60200  .......u........
 0b40 00219203 000003cd 015d0500 00680500  .!.......]...h..
 0b50 0022ad05 00006805 00000100 17470500  ."....h......G..
 0b60 0021b103 000003e1 017d0500 00b40500  .!.......}......
 0b70 0022ad05 00006805 00000123 630003e1  ."....h....#c...
 0b80 87020000 24690003 fb990200 00252654  ....$i.......%&T
 0b90 06000003 11018702 000026cd 05000003  ..........&.....
 0ba0 11018702 00000000 13d40500 00012506  ..............%.
 0bb0 00001cda 03000001 0101ce05 0000d505  ................
 0bc0 00000a25 06000001 001b2505 00000b65  ...%......%....e
 0bd0 0101e605 0000ed05 00000a25 06000001  ...........%....
 0be0 00160151 0300000b 57c40200 000101ff  ...Q....W.......
 0bf0 0500000a 25060000 010b0005 00000b00  ....%...........
 0c00 0500000b 00050000 0b000500 000b0005  ................
 0c10 00000b00 05000000 000e02b4 05000021  ...............!
 0c20 be050000 0b65033b 0600005a 06000022  .....e.;...Z..."
 0c30 ad050000 5a060000 01252463 000b6a92  ....Z....%$c..j.
 0c40 02000024 69000b6b a4020000 00001725  ...$i..k.......%
 0c50 06000027 d5050000 036d0600 00780600  ...'.....m...x..
 0c60 0022ad05 00005a06 00000100 0e028301  ."....Z.........
 0c70 000027ba 01000003 8c060000 97060000  ..'.............
 0c80 22ad0500 00970600 00010017 78060000  "...........x...
 0c90 28780500 00010101 bf060000 29090400  (x..........)...
 0ca0 00044d3a 00000029 a2050000 044d3a00  ..M:...).....M:.
 0cb0 00000027 d9030000 01cd0600 00f90600  ...'............
 0cc0 0022ad05 00006805 00000129 c7030000  ."....h....)....
 0cd0 03753702 00002905 03000003 75310500  .u7...).....u1..
 0ce0 002ae305 00000378 3c050000 0013d405  .*.....x<.......
 0cf0 0000011d 07000012 8f020000 0e790101  .............y..
 0d00 10070000 0a1d0700 00010b37 02000000  ...........7....
 0d10 000e02f9 06000027 03070000 03310700  .......'.....1..
 0d20 00470700 0022ad05 00004707 00000129  .G..."....G....)
 0d30 c7030000 0e793702 00000017 1d070000  .....y7.........
 0d40 0e024100 0000276d 00000001 60070000  ..A...'m....`...
 0d50 6b070000 22ad0500 006b0700 00010017  k..."....k......
 0d60 4c070000 27890000 00017e07 00009b07  L...'.....~.....
 0d70 000022ad 0500006b 07000001 23630001  .."....k....#c..
 0d80 8a3e0200 00246e00 018c6a01 00000027  .>...$n...j....'
 0d90 aa000000 01a90700 00c80700 0022ad05  ............."..
 0da0 00006b07 00000123 6e000167 37020000  ..k....#n..g7...
 0db0 29ef0600 0001673a 00000000 27d00000  ).....g:....'...
 0dc0 0001d607 0000ec07 000022ad 0500006b  .........."....k
 0dd0 07000001 23737472 00013e3e 02000000  ....#str..>>....
 0de0 27f10000 0001fa07 00003a08 000022ad  '.........:...".
 0df0 0500006b 07000001 236e0001 cb370200  ...k....#n...7..
 0e00 0029ef06 000001cb 87020000 24627566  .)..........$buf
 0e10 0001cd3a 08000024 73747200 01ce4a08  ...:...$str...J.
 0e20 00002524 630001d6 7c010000 00001f7c  ..%$c...|......|
 0e30 0100004a 08000020 2a050000 20000e02  ...J... *... ...
 0e40 7c010000 27180100 00035e08 00007408  |...'.....^...t.
 0e50 000022ad 0500006b 07000001 23737472  .."....k....#str
 0e60 0002343e 02000000 0e027a08 00001787  ..4>......z.....
 0e70 0200002b 39010000 be000000 12010000  ...+9...........
 0e80 00000000 99080000 01e40800 002cad05  .............,..
 0e90 00006b07 0000017d 0000002d dd060000  ..k....}...-....
 0ea0 01227408 0000b300 00002d4f 06000001  ."t.......-O....
 0eb0 226a0100 00130100 002e6e00 01246a01  "j........n..$j.
 0ec0 00006f01 00002ff4 00000030 06689301  ..o.../....0.h..
 0ed0 69930102 7c000000 0e02cf01 000031d9  i...|.........1.
 0ee0 01000012 01000014 01000003 92200204  ............. ..
 0ef0 09000001 16090000 32ad0500 00160900  ........2.......
 0f00 00010668 93016993 010017e4 08000031  ...h..i........1
 0f10 f9010000 14010000 1a010000 03922002  .............. .
 0f20 35090000 01440900 002cad05 00001609  5....D...,......
 0f30 00000193 01000000 31fb0300 001a0100  ........1.......
 0f40 00380100 00039220 025e0900 00018709  .8..... .^......
 0f50 00002cad 05000068 05000001 b9010000  ..,....h........
 0f60 33410300 0003c299 02000001 65332302  3A..........e3#.
 0f70 000003c3 99020000 01640031 1f040000  .........d.1....
 0f80 38010000 60010000 03922002 a1090000  8...`..... .....
 0f90 01c70900 002cad05 00006805 000001e1  .....,....h.....
 0fa0 01000034 42010000 5a010000 2e630003  ...4B...Z....c..
 0fb0 ba920200 00090200 00000031 43040000  ...........1C...
 0fc0 60010000 7c010000 03922002 e1090000  `...|..... .....
 0fd0 01f00900 002cad05 00006805 0000011c  .....,....h.....
 0fe0 02000000 31670400 007c0100 00940100  ....1g...|......
 0ff0 00039220 020a0a00 0001190a 00002cad  ... ..........,.
 1000 05000068 05000001 62020000 00356102  ...h....b....5a.
 1010 0000044b 01af0200 00940100 00a80100  ...K............
 1020 00039220 02014f0a 0000369c 010000f0  ... ..O...6.....
 1030 09000030 06689301 69930105 033d0180  ...0.h..i....=..
 1040 00000021 8b040000 0359015f 0a000073  ...!.....Y._...s
 1050 0a000022 ad050000 68050000 01246300  ..."....h....$c.
 1060 035d9202 00000027 a2040000 01810a00  .].....'........
 1070 00a30a00 0022ad05 00006805 00000124  ....."....h....$
 1080 6300035d 92020000 25375f0a 00002538  c..]....%7_...%8
 1090 690a0000 00000039 730a0000 a8010000  i......9s.......
 10a0 ec010000 03922002 bd0a0000 01f00a00  ...... .........
 10b0 003a810a 00008a02 00003b8b 0a000001  .:........;.....
 10c0 6234de01 0000ec01 00003a5f 0a0000c0  b4........:_....
 10d0 02000034 de010000 ec010000 38690a00  ...4........8i..
 10e0 00000000 27ba0400 0001fe0a 0000560b  ....'.........V.
 10f0 000022ad 05000068 05000001 23630003  .."....h....#c..
 1100 e1870200 00246900 03fb9902 00003c3d  .....$i.......<=
 1110 0b000037 87050000 377d0500 00253890  ...7....7}...%8.
 1120 05000025 389a0500 0038a605 00000000  ...%8....8......
 1130 00252a54 06000003 f1870200 002acd05  .%*T.........*..
 1140 000003f1 87020000 00003df0 0a0000ec  ..........=.....
 1150 01000086 020000e6 02000070 0b000001  ...........p....
 1160 4d0c0000 3afe0a00 00490300 003a080b  M...:....I...:..
 1170 00007f03 00003811 0b00003e 5c020000  ......8....>\...
 1180 74020000 d80b0000 3f3e0b00 00b60300  t.......?>......
 1190 003f490b 0000c903 0000404d 0c00005e  .?I.......@M...^
 11a0 02000060 02000003 f1415a0c 00007202  ...`.....AZ...r.
 11b0 00007402 000003f1 425f5f73 00054474  ..t.....B__s..Dt
 11c0 08000006 f2321100 00000000 34120200  .....2......4...
 11d0 005c0200 003a8705 0000e903 00003a7d  .\...:........:}
 11e0 050000fc 03000034 12020000 5c020000  .......4....\...
 11f0 3f900500 00140400 003e4c02 00005c02  ?........>L...\.
 1200 0000350c 00003f9a 05000027 0400003f  ..5...?....'...?
 1210 a6050000 3a040000 434d0c00 004e0200  ....:...CM...N..
 1220 00500200 00031101 00363c02 0000730a  .P.......6<...s.
 1230 00003006 68930169 9301028c 00000000  ..0.h..i........
 1240 00445e06 00000530 01870200 000345f3  .D^....0......E.
 1250 04000005 44010327 e3040000 01710c00  ....D..'.....q..
 1260 00830c00 0022ad05 00006805 00000125  ....."....h....%
 1270 375d0500 0000003d 630c0000 86020000  7].....=c.......
 1280 ca020000 4e040000 9d0c0000 01cb0c00  ....N...........
 1290 003a710c 00007d04 00003492 020000c4  .:q...}...4.....
 12a0 02000037 5d050000 36c20200 00730a00  ...7]...6....s..
 12b0 00300668 93016993 01028c00 00000046  .0.h..i........F
 12c0 14030000 034001ca 020000de 02000003  .....@..........
 12d0 92200201 f40c0000 47d60200 00190a00  . ......G.......
 12e0 0048dc02 00000100 49500800 00de0200  .H......IP......
 12f0 00020300 00039220 0201450d 00003a68  ....... ..E...:h
 1300 080000b3 0400004a 5e080000 06033d01  .......J^.....=.
 1310 80009f4b fc020000 017f0800 00300668  ...K.........0.h
 1320 93016993 0105033d 01800030 06669301  ..i....=...0.f..
 1330 67930103 f3016800 004cec07 00000203  g.....h..L......
 1340 00008403 00000705 000001b7 0d00003a  ...............:
 1350 04080000 9c050000 3a0d0800 00e60500  ........:.......
 1360 003b1808 0000028c 013f2308 00000706  .;.......?#.....
 1370 00004afa 07000006 033d0180 009f3e30  ..J......=....>0
 1380 03000058 030000a1 0d00003f 2f080000  ...X.......?/...
 1390 2c060000 00366603 0000f40c 00003006  ,....6f.......0.
 13a0 68930169 93010280 0000004d f2020000  h..i.......M....
 13b0 06180101 84030000 88030000 03922002  .............. .
 13c0 01d70d00 004e8803 0000004f 01330600  .....N.....O.3..
 13d0 00072d01 88030000 1c040000 62060000  ..-.........b...
 13e0 010c0e00 002e6d00 07323702 0000df06  ......m..27.....
 13f0 00002e66 00073392 02000052 07000000  ...f..3....R....
 1400 45460300 00090c01 01459502 0000081c  EF.......E......
 1410 0101450b 07000007 f1010150 6a030000  ..E........Pj...
 1420 07410137 02000001 4d0e0000 246d0007  .A.7....M...$m..
 1430 43370200 002a5902 00000744 87020000  C7...*Y....D....
 1440 0045c206 00000913 01012841 02000001  .E........(A....
 1450 0101700e 0000252a e4060000 09173702  ..p...%*......7.
 1460 00000000 5101ed02 00000821 013a0000  ....Q......!.:..
 1470 0001cc04 00009006 00000392 2002011c  ............ ...
 1480 11000040 1e0e0000 cc040000 52050000  ...@........R...
 1490 0823520c 0e000052 050000ec 05000008  .#R....R........
 14a0 2b3a0f00 00522307 00005205 0000c605  +:...R#...R.....
 14b0 0000090e 0d0f0000 37310700 003a3b07  ........71...:;.
 14c0 00009707 000041bf 06000052 050000c6  ......A....R....
 14d0 0500000e 7937cd06 00003ad7 06000097  ....y7....:.....
 14e0 0700003a e2060000 ad070000 34520500  ...:........4R..
 14f0 00c60500 003fed06 0000c107 00000000  .....?..........
 1500 0041270e 0000c605 0000dc05 00000910  .A'.............
 1510 34c60500 00dc0500 003f380e 0000e207  4........?8.....
 1520 00003f41 0e000000 08000000 0000524d  ..?A..........RM
 1530 0e0000ec 0500008a 06000008 2e121100  ................
 1540 00342006 00008a06 00003b63 0e00000c  .4 .......;c....
 1550 5c93015d 93015e93 015f9301 52270e00  \..]..^.._..R'..
 1560 00200600 00360600 00091798 0f000034  . ...6.........4
 1570 20060000 36060000 3f380e00 00130800   ...6...?8......
 1580 003f410e 00003108 00000000 52c80700  .?A...1.....R...
 1590 00360600 003e0600 000919ce 0f000037  .6...>.........7
 15a0 d6070000 37e00700 00363e06 0000f40c  ....7....6>.....
 15b0 00003006 68930169 93010503 16018000  ..0.h..i........
 15c0 0000529b 0700003e 0600004c 06000009  ..R....>...L....
 15d0 1a1c1000 0037a907 00003abc 07000044  .....7....:....D
 15e0 0800003a b3070000 58080000 364c0600  ...:....X...6L..
 15f0 00450d00 00300c66 93016793 01689301  .E...0.f..g..h..
 1600 69930105 0cc0c62d 00300164 013a0000  i......-.0.d.:..
 1610 52c80700 004c0600 00540600 00091c52  R....L...T.....R
 1620 10000037 d6070000 37e00700 00365406  ...7....7....6T.
 1630 0000f40c 00003006 68930169 93010503  ......0.h..i....
 1640 1e018000 0000529b 07000054 0600007a  ......R....T...z
 1650 06000009 1d8c1000 0037a907 00003abc  .........7....:.
 1660 07000070 0800003a b3070000 84080000  ...p...:........
 1670 367a0600 00450d00 00300164 013a0000  6z...E...0.d.:..
 1680 41700700 007a0600 008a0600 00091e37  Ap...z.........7
 1690 7e070000 37880700 00347a06 00008a06  ~...7....4z.....
 16a0 00003891 07000052 c8070000 7a060000  ..8....R....z...
 16b0 82060000 018ce110 00005353 36820600  ..........SS6...
 16c0 00f40c00 00300668 93016993 01050327  .....0.h..i....'
 16d0 01800000 00415207 00008206 00008a06  .....AR.........
 16e0 0000018d 37600700 00368a06 0000f40c  ....7`...6......
 16f0 00003006 68930169 93010503 2d018000  ..0.h..i....-...
 1700 00000000 0000478e 060000cb 0c000000  ......G.........
 1710 54b20500 00010190 060000ea 06000003  T...............
 1720 92200201 a1110000 419c0600 00900600  . ......A.......
 1730 00ea0600 00044d3a a8060000 b6080000  ......M:........
 1740 3ab30600 00ca0800 0041a111 00009006  :........A......
 1750 0000ea06 00000446 55c655c2 55c155c0  .......FU.U.U.U.
 1760 55c455c5 5606033d 0180009f 417e0600  U.U.V..=....A~..
 1770 00900600 00a80600 000b5f37 8c060000  .........._7....
 1780 41a71100 00900600 00980600 000a3f53  A.............?S
 1790 00000000 0057ed05 00000357 1d020000  .....W.....W....
 17a0 034f017a 02000004 3b011c04 00006804  .O.z....;.....h.
 17b0 0000df08 000001e0 11000036 46040000  ...........6F...
 17c0 730a0000 30066893 01699301 05033d01  s...0.h..i....=.
 17d0 80000000 4f01c105 00000428 01680400  ....O......(.h..
 17e0 00cc0400 00aa0900 00013b12 0000415f  ..........;...A_
 17f0 0600007c 040000b8 04000004 31376d06  ...|........17m.
 1800 00003492 040000b6 04000037 3b060000  ..4........7;...
 1810 34920400 00b60400 003f4606 00001a0a  4........?F.....
 1820 00003f4f 0600002d 0a000000 00000033  ..?O...-.......3
 1830 f4060000 09083702 00000503 30018000  ......7.....0...
 1840 33970300 00090737 02000005 03000180  3......7........
 1850 00333605 00000726 75120000 05033401  .36....&u.....4.
 1860 80001004 07130500 001e6e12 00003334  ..........n...34
 1870 02000007 28920200 00050338 01800033  ....(......8...3
 1880 63030000 07277512 00000503 39018000  c....'u.....9...
 1890 33dc0500 000446b4 05000005 033d0180  3.....F......=..
 18a0 0000aa00 00000200 900a0000 04016d08  ..............m.
 18b0 00004407 00004807 00002e2e 2f2e2e2f  ..D...H...../../
 18c0 2e2e2f2e 2e2f6763 632f6c69 62676363  ../../gcc/libgcc
 18d0 2f636f6e 6669672f 6176722f 6c696231  /config/avr/lib1
 18e0 66756e63 732e5300 2f557365 72732f6a  funcs.S./Users/j
 18f0 656e6b69 6e732f6a 656e6b69 6e732f77  enkins/jenkins/w
 1900 6f726b73 70616365 2f617672 2d676363  orkspace/avr-gcc
 1910 2d737461 67696e67 2f6c6162 656c2f6d  -staging/label/m
 1920 61632d6d 696e692f 6763632d 6275696c  ac-mini/gcc-buil
 1930 642f6176 722f6176 72352f6c 69626763  d/avr/avr5/libgc
 1940 6300474e 55204153 20322e32 36000180  c.GNU AS 2.26...
 1950 aa000000 0200a40a 00000401 cf080000  ................
 1960 ea060000 2e070000 2e2e2f2e 2e2f2e2e  ........../../..
 1970 2f2e2e2f 6763632f 6c696267 63632f63  /../gcc/libgcc/c
 1980 6f6e6669 672f6176 722f6c69 62316675  onfig/avr/lib1fu
 1990 6e63732e 53002f55 73657273 2f6a656e  ncs.S./Users/jen
 19a0 6b696e73 2f6a656e 6b696e73 2f776f72  kins/jenkins/wor
 19b0 6b737061 63652f61 76722d67 63632d73  kspace/avr-gcc-s
 19c0 74616769 6e672f6c 6162656c 2f6d6163  taging/label/mac
 19d0 2d6d696e 692f6763 632d6275 696c642f  -mini/gcc-build/
 19e0 6176722f 61767235 2f6c6962 67636300  avr/avr5/libgcc.
 19f0 474e5520 41532032 2e323600 0180aa00  GNU AS 2.26.....
 1a00 00000200 b80a0000 0401f109 00007600  ..............v.
 1a10 00008c00 00002e2e 2f2e2e2f 2e2e2f2e  ......../../../.
 1a20 2e2f6763 632f6c69 62676363 2f636f6e  ./gcc/libgcc/con
 1a30 6669672f 6176722f 6c696231 66756e63  fig/avr/lib1func
 1a40 732e5300 2f557365 72732f6a 656e6b69  s.S./Users/jenki
 1a50 6e732f6a 656e6b69 6e732f77 6f726b73  ns/jenkins/works
 1a60 70616365 2f617672 2d676363 2d737461  pace/avr-gcc-sta
 1a70 67696e67 2f6c6162 656c2f6d 61632d6d  ging/label/mac-m
 1a80 696e692f 6763632d 6275696c 642f6176  ini/gcc-build/av
 1a90 722f6176 72352f6c 69626763 6300474e  r/avr5/libgcc.GN
 1aa0 55204153 20322e32 36000180 aa000000  U AS 2.26.......
 1ab0 0200cc0a 00000401 890a0000 8c000000  ................
 1ac0 9c000000 2e2e2f2e 2e2f2e2e 2f2e2e2f  ....../../../../
 1ad0 6763632f 6c696267 63632f63 6f6e6669  gcc/libgcc/confi
 1ae0 672f6176 722f6c69 62316675 6e63732e  g/avr/lib1funcs.
 1af0 53002f55 73657273 2f6a656e 6b696e73  S./Users/jenkins
 1b00 2f6a656e 6b696e73 2f776f72 6b737061  /jenkins/workspa
 1b10 63652f61 76722d67 63632d73 74616769  ce/avr-gcc-stagi
 1b20 6e672f6c 6162656c 2f6d6163 2d6d696e  ng/label/mac-min
 1b30 692f6763 632d6275 696c642f 6176722f  i/gcc-build/avr/
 1b40 61767235 2f6c6962 67636300 474e5520  avr5/libgcc.GNU 
 1b50 41532032 2e323600 0180aa00 00000200  AS 2.26.........
 1b60 e00a0000 04010f0b 00009c00 0000b200  ................
 1b70 00002e2e 2f2e2e2f 2e2e2f2e 2e2f6763  ..../../../../gc
 1b80 632f6c69 62676363 2f636f6e 6669672f  c/libgcc/config/
 1b90 6176722f 6c696231 66756e63 732e5300  avr/lib1funcs.S.
 1ba0 2f557365 72732f6a 656e6b69 6e732f6a  /Users/jenkins/j
 1bb0 656e6b69 6e732f77 6f726b73 70616365  enkins/workspace
 1bc0 2f617672 2d676363 2d737461 67696e67  /avr-gcc-staging
 1bd0 2f6c6162 656c2f6d 61632d6d 696e692f  /label/mac-mini/
 1be0 6763632d 6275696c 642f6176 722f6176  gcc-build/avr/av
 1bf0 72352f6c 69626763 6300474e 55204153  r5/libgcc.GNU AS
 1c00 20322e32 36000180 aa000000 0200f40a   2.26...........
 1c10 00000401 a10b0000 2e070000 3a070000  ............:...
 1c20 2e2e2f2e 2e2f2e2e 2f2e2e2f 6763632f  ../../../../gcc/
 1c30 6c696267 63632f63 6f6e6669 672f6176  libgcc/config/av
 1c40 722f6c69 62316675 6e63732e 53002f55  r/lib1funcs.S./U
 1c50 73657273 2f6a656e 6b696e73 2f6a656e  sers/jenkins/jen
 1c60 6b696e73 2f776f72 6b737061 63652f61  kins/workspace/a
 1c70 76722d67 63632d73 74616769 6e672f6c  vr-gcc-staging/l
 1c80 6162656c 2f6d6163 2d6d696e 692f6763  abel/mac-mini/gc
 1c90 632d6275 696c642f 6176722f 61767235  c-build/avr/avr5
 1ca0 2f6c6962 67636300 474e5520 41532032  /libgcc.GNU AS 2
 1cb0 2e323600 0180                        .26...          
Contents of section .debug_abbrev:
 0000 01110125 0e100600 00022400 030e0b0b  ...%......$.....
 0010 3e0b0000 03240003 0e0b0b3e 0b000004  >....$.....>....
 0020 01014913 00000521 0049132f 05000006  ..I....!.I./....
 0030 3400030e 3a0b3b0b 49133f0c 020a0000  4...:.;.I.?.....
 0040 07340003 0e3a0b3b 0b49133f 0c020a00  .4...:.;.I.?....
 0050 00083400 030e3a0b 3b0b4913 3f0c020a  ..4...:.;.I.?...
 0060 00000934 00030e3a 0b3b0b49 133f0c02  ...4...:.;.I.?..
 0070 0a00000a 3400030e 3a0b3b0b 49133f0c  ....4...:.;.I.?.
 0080 020a0000 0b340003 0e3a0b3b 0b49133f  .....4...:.;.I.?
 0090 0c020a00 000c3400 030e3a0b 3b0b4913  ......4...:.;.I.
 00a0 3f0c020a 00000d34 00030e3a 0b3b0b49  ?......4...:.;.I
 00b0 133f0c02 0a00000e 3400030e 3a0b3b0b  .?......4...:.;.
 00c0 49133f0c 020a0000 0f340003 0e3a0b3b  I.?......4...:.;
 00d0 0b49133f 0c020a00 00103400 030e3a0b  .I.?......4...:.
 00e0 3b0b4913 3f0c020a 00001134 00030e3a  ;.I.?......4...:
 00f0 0b3b0b49 133f0c02 0a000012 3400030e  .;.I.?......4...
 0100 3a0b3b0b 49133f0c 020a0000 13340003  :.;.I.?......4..
 0110 0e3a0b3b 0b49133f 0c020a00 00143400  .:.;.I.?......4.
 0120 030e3a0b 3b0b4913 3f0c020a 00001534  ..:.;.I.?......4
 0130 00030e3a 0b3b0b49 133f0c02 0a000016  ...:.;.I.?......
 0140 3400030e 3a0b3b0b 49133f0c 020a0000  4...:.;.I.?.....
 0150 17340003 0e3a0b3b 0b49133f 0c020a00  .4...:.;.I.?....
 0160 00183400 030e3a0b 3b0b4913 3f0c020a  ..4...:.;.I.?...
 0170 00001934 00030e3a 0b3b0b49 133f0c02  ...4...:.;.I.?..
 0180 0a00001a 3400030e 3a0b3b0b 49133f0c  ....4...:.;.I.?.
 0190 020a0000 1b340003 0e3a0b3b 0b49133f  .....4...:.;.I.?
 01a0 0c020a00 001c3400 030e3a0b 3b0b4913  ......4...:.;.I.
 01b0 3f0c020a 00001d34 00030e3a 0b3b0b49  ?......4...:.;.I
 01c0 133f0c02 0a00001e 3400030e 3a0b3b0b  .?......4...:.;.
 01d0 49133f0c 020a0000 1f340003 0e3a0b3b  I.?......4...:.;
 01e0 0b49133f 0c020a00 00203400 030e3a0b  .I.?..... 4...:.
 01f0 3b0b4913 3f0c020a 00002134 00030e3a  ;.I.?.....!4...:
 0200 0b3b0b49 133f0c02 0a000022 3400030e  .;.I.?....."4...
 0210 3a0b3b0b 49133f0c 020a0000 23340003  :.;.I.?.....#4..
 0220 0e3a0b3b 0b49133f 0c020a00 00243400  .:.;.I.?.....$4.
 0230 030e3a0b 3b0b4913 3f0c020a 00002534  ..:.;.I.?.....%4
 0240 00030e3a 0b3b0b49 133f0c02 0a000026  ...:.;.I.?.....&
 0250 3400030e 3a0b3b0b 49133f0c 020a0000  4...:.;.I.?.....
 0260 27340003 0e3a0b3b 0b49133f 0c020a00  '4...:.;.I.?....
 0270 00283400 030e3a0b 3b0b4913 3f0c020a  .(4...:.;.I.?...
 0280 00002934 00030e3a 0b3b0b49 133f0c02  ..)4...:.;.I.?..
 0290 0a00002a 3400030e 3a0b3b0b 49133f0c  ...*4...:.;.I.?.
 02a0 020a0000 2b340003 0e3a0b3b 0b49133f  ....+4...:.;.I.?
 02b0 0c020a00 002c3400 030e3a0b 3b0b4913  .....,4...:.;.I.
 02c0 3f0c020a 00002d34 00030e3a 0b3b0b49  ?.....-4...:.;.I
 02d0 133f0c02 0a00002e 3400030e 3a0b3b0b  .?......4...:.;.
 02e0 49133f0c 020a0000 2f340003 0e3a0b3b  I.?...../4...:.;
 02f0 0b49133f 0c020a00 00303400 030e3a0b  .I.?.....04...:.
 0300 3b0b4913 3f0c020a 00003134 00030e3a  ;.I.?.....14...:
 0310 0b3b0b49 133f0c02 0a000032 3400030e  .;.I.?.....24...
 0320 3a0b3b0b 49133f0c 020a0000 33340003  :.;.I.?.....34..
 0330 0e3a0b3b 0b49133f 0c020a00 00343400  .:.;.I.?.....44.
 0340 030e3a0b 3b0b4913 3f0c020a 00003534  ..:.;.I.?.....54
 0350 00030e3a 0b3b0b49 133f0c02 0a000036  ...:.;.I.?.....6
 0360 3400030e 3a0b3b0b 49133f0c 020a0000  4...:.;.I.?.....
 0370 37340003 0e3a0b3b 0b49133f 0c020a00  74...:.;.I.?....
 0380 00383400 030e3a0b 3b0b4913 3f0c020a  .84...:.;.I.?...
 0390 00003934 00030e3a 0b3b0b49 133f0c02  ..94...:.;.I.?..
 03a0 0a00003a 3400030e 3a0b3b0b 49133f0c  ...:4...:.;.I.?.
 03b0 020a0000 3b340003 0e3a0b3b 0b49133f  ....;4...:.;.I.?
 03c0 0c020a00 003c3400 030e3a0b 3b0b4913  .....<4...:.;.I.
 03d0 3f0c020a 00003d34 00030e3a 0b3b0b49  ?.....=4...:.;.I
 03e0 133f0c02 0a00003e 3400030e 3a0b3b0b  .?.....>4...:.;.
 03f0 49133f0c 020a0000 3f340003 0e3a0b3b  I.?.....?4...:.;
 0400 0b49133f 0c020a00 00403400 030e3a0b  .I.?.....@4...:.
 0410 3b0b4913 3f0c020a 00004134 00030e3a  ;.I.?.....A4...:
 0420 0b3b0b49 133f0c02 0a000042 3400030e  .;.I.?.....B4...
 0430 3a0b3b0b 49133f0c 020a0000 43340003  :.;.I.?.....C4..
 0440 0e3a0b3b 0b49133f 0c020a00 00443400  .:.;.I.?.....D4.
 0450 030e3a0b 3b0b4913 3f0c020a 00004534  ..:.;.I.?.....E4
 0460 00030e3a 0b3b0b49 133f0c02 0a000046  ...:.;.I.?.....F
 0470 3400030e 3a0b3b0b 49133f0c 020a0000  4...:.;.I.?.....
 0480 47340003 0e3a0b3b 0b49133f 0c020a00  G4...:.;.I.?....
 0490 00483400 030e3a0b 3b0b4913 3f0c020a  .H4...:.;.I.?...
 04a0 00004934 00030e3a 0b3b0b49 133f0c02  ..I4...:.;.I.?..
 04b0 0a00004a 3400030e 3a0b3b0b 49133f0c  ...J4...:.;.I.?.
 04c0 020a0000 4b340003 0e3a0b3b 0b49133f  ....K4...:.;.I.?
 04d0 0c020a00 004c3400 030e3a0b 3b0b4913  .....L4...:.;.I.
 04e0 3f0c020a 00004d34 00030e3a 0b3b0b49  ?.....M4...:.;.I
 04f0 133f0c02 0a00004e 3400030e 3a0b3b0b  .?.....N4...:.;.
 0500 49133f0c 020a0000 4f340003 0e3a0b3b  I.?.....O4...:.;
 0510 0b49133f 0c020a00 00503400 030e3a0b  .I.?.....P4...:.
 0520 3b0b4913 3f0c020a 00005134 00030e3a  ;.I.?.....Q4...:
 0530 0b3b0b49 133f0c02 0a000052 3400030e  .;.I.?.....R4...
 0540 3a0b3b0b 49133f0c 020a0000 53340003  :.;.I.?.....S4..
 0550 0e3a0b3b 0b49133f 0c020a00 00543400  .:.;.I.?.....T4.
 0560 030e3a0b 3b0b4913 3f0c020a 00005534  ..:.;.I.?.....U4
 0570 00030e3a 0b3b0b49 133f0c02 0a000056  ...:.;.I.?.....V
 0580 3400030e 3a0b3b0b 49133f0c 020a0000  4...:.;.I.?.....
 0590 57340003 0e3a0b3b 0b49133f 0c020a00  W4...:.;.I.?....
 05a0 00000111 01250e13 0b030e55 06110152  .....%.....U...R
 05b0 01100600 00020f00 0b0b030e 49130000  ............I...
 05c0 03150149 13011300 00041800 00000524  ...I...........$
 05d0 000b0b3e 0b030800 00061301 030e0b0b  ...>............
 05e0 3a0b3b0b 1d130113 0000070d 00030e49  :.;............I
 05f0 13380a34 0c000008 0d00030e 3a0b3b0b  .8.4........:.;.
 0600 4913380a 320b0000 092e0103 0e3a0b3b  I.8.2........:.;
 0610 0b270c49 133c0c64 13011300 000a0500  .'.I.<.d........
 0620 4913340c 00000b05 00491300 000c2e01  I.4......I......
 0630 030e3a0b 3b0b270c 4913320b 3c0c6413  ..:.;.'.I.2.<.d.
 0640 01130000 0d2e0103 0e3a0b3b 0b270c49  .........:.;.'.I
 0650 134c0b4d 0a1d133c 0c641300 000e0f00  .L.M...<.d......
 0660 0b0b4913 00000f16 00030e3a 0b3b0b49  ..I........:.;.I
 0670 13000010 24000b0b 3e0b030e 0000111c  ....$...>.......
 0680 00491338 0a320b00 00122e01 030e3a0b  .I.8.2........:.
 0690 3b0b270c 3c0c6413 00001313 01030e3c  ;.'.<.d........<
 06a0 0c011300 00142e01 030e3a0b 3b0b270c  ..........:.;.'.
 06b0 4c0b4d0a 1d133c0c 64130113 0000152e  L.M...<.d.......
 06c0 01030e3a 0b3b0b27 0c49134c 0b4d0a1d  ...:.;.'.I.L.M..
 06d0 133c0c64 13011300 00162e01 3f0c030e  .<.d........?...
 06e0 3a0b3b0b 87400e27 0c3c0c64 13000017  :.;..@.'.<.d....
 06f0 26004913 00001813 00030e3c 0c000019  &.I........<....
 0700 2e01030e 270c4c0b 4d0a1d13 340c3c0c  ....'.L.M...4.<.
 0710 64130113 00001a2e 01030e27 0c49134c  d..........'.I.L
 0720 0b4d0a1d 13340c3c 0c641301 1300001b  .M...4.<.d......
 0730 2e01030e 3a0b3b0b 270c3c0c 64130113  ....:.;.'.<.d...
 0740 00001c2e 01030e27 0c340c3c 0c641301  .......'.4.<.d..
 0750 1300001d 2e01030e 3a0b3b0b 270c4c0b  ........:.;.'.L.
 0760 4d0a1d13 3c0c6413 00001e35 00491300  M...<.d....5.I..
 0770 001f0101 49130113 00002021 0049132f  ....I..... !.I./
 0780 0b000021 2e014713 3a0b3b0b 200b6413  ...!..G.:.;. .d.
 0790 01130000 22050003 0e491334 0c000023  ...."....I.4...#
 07a0 05000308 3a0b3b0b 49130000 24340003  ....:.;.I...$4..
 07b0 083a0b3b 0b491300 00250b01 00002634  .:.;.I...%....&4
 07c0 00030e3a 0b3b0549 13000027 2e014713  ...:.;.I...'..G.
 07d0 200b6413 01130000 282e0103 0e270c34   .d.....(....'.4
 07e0 0c200b01 13000029 0500030e 3a0b3b0b  . .....)....:.;.
 07f0 49130000 2a340003 0e3a0b3b 0b491300  I...*4...:.;.I..
 0800 002b2e01 47131101 12014006 64139742  .+..G.....@.d..B
 0810 0c011300 002c0500 030e4913 340c0206  .....,....I.4...
 0820 00002d05 00030e3a 0b3b0b49 13020600  ..-....:.;.I....
 0830 002e3400 03083a0b 3b0b4913 02060000  ..4...:.;.I.....
 0840 2f898201 01110100 00308a82 0100020a  /........0......
 0850 91420a00 00312e01 47131101 1201400a  .B...1..G.....@.
 0860 64139742 0c011300 00320500 030e4913  d..B.....2....I.
 0870 340c020a 00003334 00030e3a 0b3b0b49  4.....34...:.;.I
 0880 13020a00 00340b01 11011201 0000352e  .....4........5.
 0890 01030e3a 0b3b0b27 0c491311 01120140  ...:.;.'.I.....@
 08a0 0a97420c 01130000 36898201 01110131  ..B.....6......1
 08b0 13000037 05003113 00003834 00311300  ...7..1...84.1..
 08c0 00392e01 31131101 1201400a 64139742  .9..1.....@.d..B
 08d0 0c011300 003a0500 31130206 00003b34  .....:..1.....;4
 08e0 00311302 0a00003c 0b010113 00003d2e  .1.....<......=.
 08f0 01311311 01120140 06641397 420c0113  .1.....@.d..B...
 0900 00003e0b 01110112 01011300 003f3400  ..>..........?4.
 0910 31130206 0000401d 00311311 01120158  1.....@..1.....X
 0920 0b590b00 00411d01 31131101 1201580b  .Y...A..1.....X.
 0930 590b0000 42340003 083a0b3b 0b491302  Y...B4...:.;.I..
 0940 0a000043 1d003113 11011201 580b5905  ...C..1.....X.Y.
 0950 0000442e 00030e3a 0b3b0b27 0c491320  ..D....:.;.'.I. 
 0960 0b000045 2e00030e 3a0b3b0b 270c200b  ...E....:.;.'. .
 0970 0000462e 01030e3a 0b3b0b27 0c110112  ..F....:.;.'....
 0980 01400a97 420c0113 00004789 82010011  .@..B.....G.....
 0990 01311300 00488982 01001101 95420c00  .1...H.......B..
 09a0 00492e01 31131101 1201400a 97420c01  .I..1.....@..B..
 09b0 1300004a 05003113 020a0000 4b898201  ...J..1.....K...
 09c0 01110195 420c3113 00004c2e 01311311  ....B.1...L..1..
 09d0 01120140 0697420c 01130000 4d2e0103  ...@..B.....M...
 09e0 0e3a0b3b 0b270c87 010c1101 1201400a  .:.;.'........@.
 09f0 97420c01 1300004e 89820100 11010000  .B.....N........
 0a00 4f2e013f 0c030e3a 0b3b0b27 0c110112  O..?...:.;.'....
 0a10 01400697 420c0113 0000502e 01030e3a  .@..B.....P....:
 0a20 0b3b0b27 0c491320 0b011300 00512e01  .;.'.I. .....Q..
 0a30 3f0c030e 3a0b3b0b 270c4913 87010c11  ?...:.;.'.I.....
 0a40 01120140 0a97420c 01130000 521d0131  ...@..B.....R..1
 0a50 13110112 01580b59 0b011300 00533400  .....X.Y.....S4.
 0a60 0000542e 01030e27 0c340c11 01120140  ..T....'.4.....@
 0a70 0a97420c 01130000 5534001c 0b000056  ..B.....U4.....V
 0a80 3400020a 0000572e 00471320 0b000000  4.....W..G. ....
 0a90 01110010 06110112 0103081b 08250813  .............%..
 0aa0 05000000 01110010 06110112 0103081b  ................
 0ab0 08250813 05000000 01110010 06110112  .%..............
 0ac0 0103081b 08250813 05000000 01110010  .....%..........
 0ad0 06110112 0103081b 08250813 05000000  .........%......
 0ae0 01110010 06110112 0103081b 08250813  .............%..
 0af0 05000000 01110010 06110112 0103081b  ................
 0b00 08250813 05000000                    .%......        
Contents of section .debug_line:
 0000 16000000 02001000 00000201 fb0e0a00  ................
 0010 01010101 00000001 00004f08 00000200  ..........O.....
 0020 40040000 0201fb0e 0a000101 01010000  @...............
 0030 00012f70 72697661 74652f76 61722f66  ../private/var/f
 0040 6f6c6465 72732f76 392f665f 5f703966  olders/v9/f__p9f
 0050 7473336d 39377a30 38307233 7171765f  ts3m97z080r3qqv_
 0060 71303030 3030676e 2f542f41 70705472  q00000gn/T/AppTr
 0070 616e736c 6f636174 696f6e2f 34463435  anslocation/4F45
 0080 46313536 2d333745 422d3438 34302d38  F156-37EB-4840-8
 0090 3343432d 42413943 46453031 39433533  3CC-BA9CFE019C53
 00a0 2f642f41 72647569 6e6f2031 2e382e39  /d/Arduino 1.8.9
 00b0 2e617070 2f436f6e 74656e74 732f4a61  .app/Contents/Ja
 00c0 76612f68 61726477 6172652f 61726475  va/hardware/ardu
 00d0 696e6f2f 6176722f 636f7265 732f6172  ino/avr/cores/ar
 00e0 6475696e 6f002f70 72697661 74652f76  duino./private/v
 00f0 61722f66 6f6c6465 72732f76 392f665f  ar/folders/v9/f_
 0100 5f703966 7473336d 39377a30 38307233  _p9fts3m97z080r3
 0110 7171765f 71303030 3030676e 2f542f41  qqv_q00000gn/T/A
 0120 70705472 616e736c 6f636174 696f6e2f  ppTranslocation/
 0130 34463435 46313536 2d333745 422d3438  4F45F156-37EB-48
 0140 34302d38 3343432d 42413943 46453031  40-83CC-BA9CFE01
 0150 39433533 2f642f41 72647569 6e6f2031  9C53/d/Arduino 1
 0160 2e382e39 2e617070 2f436f6e 74656e74  .8.9.app/Content
 0170 732f4a61 76612f68 61726477 6172652f  s/Java/hardware/
 0180 746f6f6c 732f6176 722f6176 722f696e  tools/avr/avr/in
 0190 636c7564 652f7574 696c002f 5f736861  clude/util./_sha
 01a0 7265645f 2f646576 2f646576 2e70726f  red_/dev/dev.pro
 01b0 6a656374 732f544f 432f4d49 44492d46  jects/TOC/MIDI-F
 01c0 4f4f542d 434f4e54 524f4c4c 45522e50  OOT-CONTROLLER.P
 01d0 55424c49 432e4749 542f6172 6475696e  UBLIC.GIT/arduin
 01e0 6f2f4a42 5f435055 5f557361 67655f42  o/JB_CPU_Usage_B
 01f0 61736963 315f5365 7269616c 002f7072  asic1_Serial./pr
 0200 69766174 652f7661 722f666f 6c646572  ivate/var/folder
 0210 732f7639 2f665f5f 70396674 73336d39  s/v9/f__p9fts3m9
 0220 377a3038 30723371 71765f71 30303030  7z080r3qqv_q0000
 0230 30676e2f 542f4170 70547261 6e736c6f  0gn/T/AppTranslo
 0240 63617469 6f6e2f34 46343546 3135362d  cation/4F45F156-
 0250 33374542 2d343834 302d3833 43432d42  37EB-4840-83CC-B
 0260 41394346 45303139 4335332f 642f4172  A9CFE019C53/d/Ar
 0270 6475696e 6f20312e 382e392e 6170702f  duino 1.8.9.app/
 0280 436f6e74 656e7473 2f4a6176 612f6861  Contents/Java/ha
 0290 72647761 72652f74 6f6f6c73 2f617672  rdware/tools/avr
 02a0 2f6c6962 2f676363 2f617672 2f352e34  /lib/gcc/avr/5.4
 02b0 2e302f69 6e636c75 6465002f 70726976  .0/include./priv
 02c0 6174652f 7661722f 666f6c64 6572732f  ate/var/folders/
 02d0 76392f66 5f5f7039 66747333 6d39377a  v9/f__p9fts3m97z
 02e0 30383072 33717176 5f713030 30303067  080r3qqv_q00000g
 02f0 6e2f542f 41707054 72616e73 6c6f6361  n/T/AppTransloca
 0300 74696f6e 2f344634 35463135 362d3337  tion/4F45F156-37
 0310 45422d34 3834302d 38334343 2d424139  EB-4840-83CC-BA9
 0320 43464530 31394335 332f642f 41726475  CFE019C53/d/Ardu
 0330 696e6f20 312e382e 392e6170 702f436f  ino 1.8.9.app/Co
 0340 6e74656e 74732f4a 6176612f 68617264  ntents/Java/hard
 0350 77617265 2f746f6f 6c732f61 76722f61  ware/tools/avr/a
 0360 76722f69 6e636c75 64650000 5072696e  vr/include..Prin
 0370 742e6370 70000100 00507269 6e742e68  t.cpp....Print.h
 0380 00010000 48617264 77617265 53657269  ....HardwareSeri
 0390 616c2e63 70700001 00004861 72647761  al.cpp....Hardwa
 03a0 72655365 7269616c 302e6370 70000100  reSerial0.cpp...
 03b0 0061746f 6d69632e 68000200 00616269  .atomic.h....abi
 03c0 2e637070 00010000 77697269 6e672e63  .cpp....wiring.c
 03d0 00010000 6d61696e 2e637070 00010000  ....main.cpp....
 03e0 4a425f43 50555f55 73616765 5f426173  JB_CPU_Usage_Bas
 03f0 6963315f 53657269 616c2e69 6e6f0003  ic1_Serial.ino..
 0400 00005374 7265616d 2e680001 00004861  ..Stream.h....Ha
 0410 72647761 72655365 7269616c 5f707269  rdwareSerial_pri
 0420 76617465 2e680001 00007374 64646566  vate.h....stddef
 0430 2e680004 00007374 64696e74 2e680005  .h....stdint.h..
 0440 00004861 72647761 72655365 7269616c  ..HardwareSerial
 0450 2e680001 00004172 6475696e 6f2e6800  .h....Arduino.h.
 0460 01000000 000502be 00000003 22010301  ............"...
 0470 09160001 03010904 00010301 09060001  ................
 0480 03040920 00010402 03300914 00010365  ... .....0.....e
 0490 09020001 03000900 00010403 03820109  ................
 04a0 06000103 05090000 01030109 04000103  ................
 04b0 02090a00 01030109 0c000103 01090200  ................
 04c0 01036a09 02000103 02090200 01030309  ..j.............
 04d0 08000103 01090c00 01030109 08000103  ................
 04e0 7c090400 01030609 04000103 6e090200  |...........n...
 04f0 01030109 02000103 03090800 01037e09  ..............~.
 0500 0c000103 04090400 01037509 02000103  ..........u.....
 0510 01090200 01030109 10000104 0403a27f  ................
 0520 09060001 03010900 00010301 09100001  ................
 0530 0403030d 09040001 03030902 00010301  ................
 0540 090e0001 0302090c 00010308 09060001  ................
 0550 0305090c 00010302 09080001 03f30009  ................
 0560 0e000103 01090e00 01030509 04000103  ................
 0570 13091400 01030409 0e000103 01090600  ................
 0580 01030509 06000103 01090a00 01030609  ................
 0590 08000103 05090e00 01040503 a17e0902  .............~..
 05a0 00010403 03e00109 02000103 01090200  ................
 05b0 01035e09 0a000104 0503c17e 09020001  ..^........~....
 05c0 040303c0 01090200 01030209 06000104  ................
 05d0 0503d27e 090c0001 03010902 00010403  ...~............
 05e0 03d00109 00000103 b77f0912 00010304  ................
 05f0 09060001 03030906 00010301 09140001  ................
 0600 0304090c 00010301 090a0001 03040908  ................
 0610 000103e2 7e090600 01030209 00000104  ....~...........
 0620 02037109 14000103 01090000 01030109  ..q.............
 0630 04000103 01091a00 01040103 94010906  ................
 0640 00010305 09200001 03030902 00010303  ..... ..........
 0650 090c0001 03010912 00010302 09040001  ................
 0660 037c0912 00010307 09080001 03010906  .|..............
 0670 00010406 03bb7e09 1e000103 03090000  ......~.........
 0680 01040703 14090400 01030309 16000103  ................
 0690 01091000 01030309 04000103 01090400  ................
 06a0 01037e09 04000103 03090800 01030109  ..~.............
 06b0 04000103 03090600 01030109 04000103  ................
 06c0 01091000 01030109 26000104 04030009  ........&.......
 06d0 16000103 01092200 01030109 08000103  ......".........
 06e0 6f092200 01040b03 37091400 01030309  o.".....7.......
 06f0 16000103 01090200 01030609 08000103  ................
 0700 01090800 01030109 0c000103 04090600  ................
 0710 01040403 bb7f0902 00010914 00000101  ................
 0720 04080005 02cc0400 00032101 040703d3  ..........!.....
 0730 01090000 01030609 02000103 01090600  ................
 0740 01030d09 06000103 01090600 01030d09  ................
 0750 06000103 0b090a00 01030309 04000103  ................
 0760 02090a00 01030a09 0a000103 07090a00  ................
 0770 01030909 0a000103 23090a00 01030109  ........#.......
 0780 0a000103 01090a00 01031709 0a000103  ................
 0790 09090a00 01040303 f37d0904 00010309  .........}......
 07a0 090c0001 0305090a 00010301 090a0001  ................
 07b0 0302090c 00010306 09040001 0302090c  ................
 07c0 00010301 090e0001 0301090e 00010301  ................
 07d0 090e0001 040703af 7f090e00 01030409  ................
 07e0 02000103 01090200 01030109 10000104  ................
 07f0 09034609 02000103 05091000 01040703  ..F.............
 0800 2f093400 01030409 02000103 01090200  /.4.............
 0810 01030109 10000104 01037609 02000103  ..........v.....
 0820 2a090800 01035609 0e000103 2a090800  *.....V.....*...
 0830 01035609 26000103 c0000908 00010408  ..V.&...........
 0840 03af7f09 08000104 04031e09 06000104  ................
 0850 02036109 00000104 0a031109 08000104  ..a.............
 0860 0b032009 10000109 42000001 015e0000  .. .....B....^..
 0870 00020041 00000002 01fb0e0a 00010101  ...A............
 0880 01000000 012e2e2f 2e2e2f2e 2e2f2e2e  ......./../../..
 0890 2f676363 2f6c6962 6763632f 636f6e66  /gcc/libgcc/conf
 08a0 69672f61 76720000 6c696231 66756e63  ig/avr..lib1func
 08b0 732e5300 01000000 00050244 07000003  s.S........D....
 08c0 e6110103 02090200 01090200 0001011e  ................
 08d0 01000002 00410000 000201fb 0e0a0001  .....A..........
 08e0 01010100 0000012e 2e2f2e2e 2f2e2e2f  ........./../../
 08f0 2e2e2f67 63632f6c 69626763 632f636f  ../gcc/libgcc/co
 0900 6e666967 2f617672 00006c69 62316675  nfig/avr..lib1fu
 0910 6e63732e 53000100 00000005 02ea0600  ncs.S...........
 0920 0003e60c 01030109 02000103 01090200  ................
 0930 01030109 02000103 01090200 01030209  ................
 0940 02000103 02090200 01030109 02000103  ................
 0950 01090200 01030109 02000103 01090200  ................
 0960 01030109 02000103 01090200 01030109  ................
 0970 02000103 01090200 01030109 02000103  ................
 0980 01090200 01030109 02000103 01090200  ................
 0990 01030209 02000103 01090200 01030109  ................
 09a0 02000103 01090200 01030109 02000103  ................
 09b0 01090200 01030209 02000103 01090200  ................
 09c0 01030109 02000103 01090200 01030209  ................
 09d0 02000103 02090200 01030209 02000103  ................
 09e0 02090200 01030209 02000109 02000001  ................
 09f0 01940000 00020041 00000002 01fb0e0a  .......A........
 0a00 00010101 01000000 012e2e2f 2e2e2f2e  .........../../.
 0a10 2e2f2e2e 2f676363 2f6c6962 6763632f  ./../gcc/libgcc/
 0a20 636f6e66 69672f61 76720000 6c696231  config/avr..lib1
 0a30 66756e63 732e5300 01000000 00050276  funcs.S........v
 0a40 00000003 e9120103 01090200 01030109  ................
 0a50 02000103 01090200 01030109 02000103  ................
 0a60 01090200 01030309 02000103 05090200  ................
 0a70 01030209 02000103 01090200 01030109  ................
 0a80 02000109 02000001 01820000 00020041  ...............A
 0a90 00000002 01fb0e0a 00010101 01000000  ................
 0aa0 012e2e2f 2e2e2f2e 2e2f2e2e 2f676363  .../../../../gcc
 0ab0 2f6c6962 6763632f 636f6e66 69672f61  /libgcc/config/a
 0ac0 76720000 6c696231 66756e63 732e5300  vr..lib1funcs.S.
 0ad0 01000000 0005028c 00000003 89130103  ................
 0ae0 01090200 01030109 02000103 01090200  ................
 0af0 01030209 02000103 02090200 01030109  ................
 0b00 02000103 01090200 01090200 0001018e  ................
 0b10 00000002 00410000 000201fb 0e0a0001  .....A..........
 0b20 01010100 0000012e 2e2f2e2e 2f2e2e2f  ........./../../
 0b30 2e2e2f67 63632f6c 69626763 632f636f  ../gcc/libgcc/co
 0b40 6e666967 2f617672 00006c69 62316675  nfig/avr..lib1fu
 0b50 6e63732e 53000100 00000005 029c0000  ncs.S...........
 0b60 0003a213 01030109 02000103 01090200  ................
 0b70 01030409 02000103 02090200 01030609  ................
 0b80 02000103 01090200 01030209 04000103  ................
 0b90 01090200 01030509 02000109 02000001  ................
 0ba0 01760000 00020041 00000002 01fb0e0a  .v.....A........
 0bb0 00010101 01000000 012e2e2f 2e2e2f2e  .........../../.
 0bc0 2e2f2e2e 2f676363 2f6c6962 6763632f  ./../gcc/libgcc/
 0bd0 636f6e66 69672f61 76720000 6c696231  config/avr..lib1
 0be0 66756e63 732e5300 01000000 0005022e  funcs.S.........
 0bf0 07000003 f8110103 01090200 01031f09  ................
 0c00 02000103 01090200 01030109 02000103  ................
 0c10 01090200 01090200 000101             ...........     
Contents of section .debug_frame:
 0000 10000000 ffffffff 0100027f 240c2002  ............$. .
 0010 a4010000 34000000 00000000 be000000  ....4...........
 0020 54000000 410e038c 02410e04 8d03410e  T...A....A....A.
 0030 058e0441 0e068f05 410e0790 06410e08  ...A....A....A..
 0040 9107410e 099c0841 0e0a9d09 0c000000  ..A....A........
 0050 00000000 12010000 02000000 0c000000  ................
 0060 00000000 14010000 06000000 0c000000  ................
 0070 00000000 1a010000 1e000000 0c000000  ................
 0080 00000000 38010000 28000000 0c000000  ....8...(.......
 0090 00000000 60010000 1c000000 0c000000  ....`...........
 00a0 00000000 7c010000 18000000 0c000000  ....|...........
 00b0 00000000 94010000 14000000 0c000000  ................
 00c0 00000000 a8010000 44000000 2c000000  ........D...,...
 00d0 00000000 ec010000 9a000000 410e038e  ............A...
 00e0 02410e04 8f03410e 05900441 0e069105  .A....A....A....
 00f0 410e079c 06410e08 9d070000 18000000  A....A..........
 0100 00000000 86020000 44000000 410e039c  ........D...A...
 0110 02410e04 9d030000 0c000000 00000000  .A..............
 0120 ca020000 14000000 0c000000 00000000  ................
 0130 de020000 24000000 3c000000 00000000  ....$...<.......
 0140 02030000 82000000 410e0388 02410e04  ........A....A..
 0150 8903410e 058a0441 0e068b05 410e0790  ..A....A....A...
 0160 06410e08 9107410e 099c0841 0e0a9d09  .A....A....A....
 0170 420d1c41 0e2b0000 0c000000 00000000  B..A.+..........
 0180 84030000 04000000 34000000 00000000  ........4.......
 0190 88030000 94000000 410e0381 02410e04  ........A....A..
 01a0 8003440e 05920441 0e069305 410e0798  ..D....A....A...
 01b0 06410e08 9907410e 099a0841 0e0a9b09  .A....A....A....
 01c0 0c000000 00000000 cc040000 c4010000  ................
 01d0 0c000000 00000000 90060000 5a000000  ............Z...
 01e0 54000000 00000000 1c040000 4c000000  T...........L...
 01f0 410e0381 02410e04 8003440e 05920441  A....A....D....A
 0200 0e069305 410e0794 06410e08 9507410e  ....A....A....A.
 0210 09960841 0e0a9709 410e0b98 0a410e0c  ...A....A....A..
 0220 990b410e 0d9a0c41 0e0e9b0d 410e0f9e  ..A....A....A...
 0230 0e410e10 9f0f0000 30000000 00000000  .A......0.......
 0240 68040000 64000000 410e0381 02410e04  h...d...A....A..
 0250 8003440e 05920441 0e069805 410e0799  ..D....A....A...
 0260 06410e08 9e07410e 099f0800           .A....A.....    
Contents of section .debug_str:
 0000 6176722d 6c696263 20322e30 2e300075  avr-libc 2.0.0.u
 0010 696e7438 5f740075 696e7431 365f7400  int8_t.uint16_t.
 0020 5f5f6565 70726f6d 00554452 30005543  __eeprom.UDR0.UC
 0030 53523041 00554353 52304200 55435352  SR0A.UCSR0B.UCSR
 0040 30430055 42525230 00545741 4d520054  0C.UBRR0.TWAMR.T
 0050 57425200 54574352 00545753 52005457  WBR.TWCR.TWSR.TW
 0060 44520054 57415200 54494d53 4b310054  DR.TWAR.TIMSK1.T
 0070 49465231 00544343 52314100 54434352  IFR1.TCCR1A.TCCR
 0080 31420054 43435231 43005443 4e543100  1B.TCCR1C.TCNT1.
 0090 4f435231 41004f43 52314200 49435231  OCR1A.OCR1B.ICR1
 00a0 00475443 43520054 494d534b 32005449  .GTCCR.TIMSK2.TI
 00b0 46523200 54434352 32410054 43435232  FR2.TCCR2A.TCCR2
 00c0 42005443 4e543200 4f435232 42004f43  B.TCNT2.OCR2B.OC
 00d0 52324100 41535352 00475443 43520041  R2A.ASSR.GTCCR.A
 00e0 444d5558 00414443 00414443 53524100  DMUX.ADC.ADCSRA.
 00f0 41444353 52420044 49445230 00414353  ADCSRB.DIDR0.ACS
 0100 52004449 44523100 504f5254 42004444  R.DIDR1.PORTB.DD
 0110 52420050 494e4200 504f5254 43004444  RB.PINB.PORTC.DD
 0120 52430050 494e4300 504f5254 44004444  RC.PINC.PORTD.DD
 0130 52440050 494e4400 4f435230 42004f43  RD.PIND.OCR0B.OC
 0140 52304100 54434e54 30005443 43523042  R0A.TCNT0.TCCR0B
 0150 00544343 52304100 54494d53 4b300054  .TCCR0A.TIMSK0.T
 0160 49465230 00475443 43520045 49435241  IFR0.GTCCR.EICRA
 0170 0045494d 534b0045 49465200 50434943  .EIMSK.EIFR.PCIC
 0180 52005043 4d534b32 0050434d 534b3100  R.PCMSK2.PCMSK1.
 0190 50434d53 4b300050 43494652 00535044  PCMSK0.PCIFR.SPD
 01a0 52005350 53520053 50435200 57445443  R.SPSR.SPCR.WDTC
 01b0 53520050 5252004f 53434341 4c00434c  SR.PRR.OSCCAL.CL
 01c0 4b505200 53524547 00535000 53504d43  KPR.SREG.SP.SPMC
 01d0 5352004d 43554352 004d4355 53520053  SR.MCUCR.MCUSR.S
 01e0 4d435200 4750494f 52320047 50494f52  MCR.GPIOR2.GPIOR
 01f0 31004750 494f5230 00454541 52004545  1.GPIOR0.EEAR.EE
 0200 44520045 45435200 5f74785f 62756666  DR.EECR._tx_buff
 0210 65725f68 65616400 5f72785f 62756666  er_head._rx_buff
 0220 65725f74 61696c00 77726974 6500666c  er_tail.write.fl
 0230 75736800 74696d65 72305f66 72616374  ush.timer0_fract
 0240 006c6f6f 702e7061 72742e30 00777269  .loop.part.0.wri
 0250 74655f65 72726f72 006f6c64 53524547  te_error.oldSREG
 0260 00536572 69616c30 5f617661 696c6162  .Serial0_availab
 0270 6c650073 697a655f 74005f5f 76656374  le.size_t.__vect
 0280 6f725f31 39007369 7a657479 70650062  or_19.sizetype.b
 0290 6567696e 00696e69 74566172 69616e74  egin.initVariant
 02a0 005f5a4e 31344861 72647761 72655365  ._ZN14HardwareSe
 02b0 7269616c 35666c75 73684576 2e706172  rial5flushEv.par
 02c0 742e3200 5f5a4e31 34486172 64776172  t.2._ZN14Hardwar
 02d0 65536572 69616c43 32455056 6853315f  eSerialC2EPVhS1_
 02e0 53315f53 315f5331 5f53315f 006d6169  S1_S1_S1_S1_.mai
 02f0 6e005f5f 6378615f 70757265 5f766972  n.__cxa_pure_vir
 0300 7475616c 00636f6e 66696700 75696e74  tual.config.uint
 0310 385f7400 73657269 616c4576 656e7452  8_t.serialEventR
 0320 756e005f 5a4e3550 72696e74 43324576  un._ZN5PrintC2Ev
 0330 00626f6f 6c005f72 785f6275 66666572  .bool._rx_buffer
 0340 5f686561 64007365 74757000 72656164  _head.setup.read
 0350 005f5f62 6173655f 63746f72 20007065  .__base_ctor .pe
 0360 656b0074 696d6572 305f6d69 6c6c6973  ek.timer0_millis
 0370 00617661 696c6162 6c65466f 72577269  .availableForWri
 0380 7465005f 75627272 68003c61 72746966  te._ubrrh.<artif
 0390 69636961 6c3e005f 6c6f6f70 436f756e  icial>._loopCoun
 03a0 74657200 62797465 00707269 6e744e75  ter.byte.printNu
 03b0 6d626572 0072785f 62756666 65725f69  mber.rx_buffer_i
 03c0 6e646578 5f740062 61756400 756e7369  ndex_t.baud.unsi
 03d0 676e6564 20636861 72005f5a 4e313448  gned char._ZN14H
 03e0 61726477 61726553 65726961 6c31365f  ardwareSerial16_
 03f0 72785f63 6f6d706c 6574655f 69727145  rx_complete_irqE
 0400 762e7061 72742e30 005f5f69 6e697469  v.part.0.__initi
 0410 616c697a 655f7000 474e5520 47494d50  alize_p.GNU GIMP
 0420 4c452035 2e342e30 202d6d6e 2d666c61  LE 5.4.0 -mn-fla
 0430 73683d31 202d6d6d 63753d61 76723520  sh=1 -mmcu=avr5 
 0440 2d6d6e2d 666c6173 683d3120 2d6d6e6f  -mn-flash=1 -mno
 0450 2d736b69 702d6275 67202d6d 6d63753d  -skip-bug -mmcu=
 0460 61767235 202d6720 2d4f7320 2d4f7320  avr5 -g -Os -Os 
 0470 2d666d61 74682d65 72726e6f 202d6673  -fmath-errno -fs
 0480 69676e65 642d7a65 726f7320 2d667472  igned-zeros -ftr
 0490 61707069 6e672d6d 61746820 2d666e6f  apping-math -fno
 04a0 2d747261 7076202d 666e6f2d 6f70656e  -trapv -fno-open
 04b0 6d70202d 666e6f2d 6f70656e 61636320  mp -fno-openacc 
 04c0 2d666e6f 2d657863 65707469 6f6e7320  -fno-exceptions 
 04d0 2d667573 652d6c69 6e6b6572 2d706c75  -fuse-linker-plu
 04e0 67696e20 2d666c74 72616e73 00707269  gin -fltrans.pri
 04f0 6e74005f 5f695265 73746f72 65007569  nt.__iRestore.ui
 0500 6e743136 5f74005f 76707472 2e507269  nt16_t._vptr.Pri
 0510 6e74006c 6f6e6720 756e7369 676e6564  nt.long unsigned
 0520 20696e74 005f7278 5f636f6d 706c6574   int._rx_complet
 0530 655f6972 71007469 6d657230 5f6f7665  e_irq.timer0_ove
 0540 72666c6f 775f636f 756e7400 53747265  rflow_count.Stre
 0550 616d005f 74785f62 75666665 72005f74  am._tx_buffer._t
 0560 785f7564 725f656d 7074795f 69727100  x_udr_empty_irq.
 0570 7072696e 746c6e00 5f5f7374 61746963  println.__static
 0580 5f696e69 7469616c 697a6174 696f6e5f  _initialization_
 0590 616e645f 64657374 72756374 696f6e5f  and_destruction_
 05a0 30005f5f 7072696f 72697479 00746869  0.__priority.thi
 05b0 73005f47 4c4f4241 4c5f5f73 75625f49  s._GLOBAL__sub_I
 05c0 5f5f5f76 6563746f 725f3138 005f5f54  ___vector_18.__T
 05d0 6f446f00 48617264 77617265 53657269  oDo.HardwareSeri
 05e0 616c0062 6175645f 73657474 696e6700  al.baud_setting.
 05f0 5f74785f 62756666 65725f74 61696c00  _tx_buffer_tail.
 0600 5f5a4e31 34486172 64776172 65536572  _ZN14HardwareSer
 0610 69616c35 77726974 6545682e 70617274  ial5writeEh.part
 0620 2e33005f 5f767462 6c5f7074 725f7479  .3.__vtbl_ptr_ty
 0630 7065005f 5f766563 746f725f 3136005f  pe.__vector_16._
 0640 75627272 6c005f74 696d656f 75740073  ubrrl._timeout.s
 0650 697a6500 73726567 5f736176 65005f5f  ize.sreg_save.__
 0660 69436c69 52657456 616c005f 5a4e3134  iCliRetVal._ZN14
 0670 48617264 77617265 53657269 616c3137  HardwareSerial17
 0680 5f74785f 7564725f 656d7074 795f6972  _tx_udr_empty_ir
 0690 7145762e 70617274 2e31005f 75637372  qEv.part.1._ucsr
 06a0 61005f75 63737262 005f7563 73726300  a._ucsrb._ucsrc.
 06b0 74785f62 75666665 725f696e 6465785f  tx_buffer_index_
 06c0 74006c6f 6f70005f 73746172 744d696c  t.loop._startMil
 06d0 6c697300 5f756472 005f7278 5f627566  lis._udr._rx_buf
 06e0 66657200 656e6454 696d655f 6d730062  fer.endTime_ms.b
 06f0 61736500 5f737461 72745469 6d655f6d  ase._startTime_m
 0700 73005f77 72697474 656e0069 6e697400  s._written.init.
Contents of section .debug_loc:
 0000 be000000 c0000000 03009220 02c00000  ........... ....
 0010 00c20000 00030092 2003c200 0000c400  ........ .......
 0020 00000300 922004c4 000000c6 00000003  ..... ..........
 0030 00922005 c6000000 c8000000 03009220  .. ............ 
 0040 06c80000 00ca0000 00030092 2007ca00  ............ ...
 0050 0000cc00 00000300 922008cc 000000ce  ......... ......
 0060 00000003 00922009 ce000000 12010000  ...... .........
 0070 03009220 0a000000 00000000 00be0000  ... ............
 0080 00d80000 00060068 93016993 01d80000  .......h..i.....
 0090 00100100 0006005c 93015d93 01100100  .......\..].....
 00a0 00120100 000400f3 01689f00 00000000  .........h......
 00b0 000000be 000000d8 00000006 00669301  .............f..
 00c0 679301d8 000000de 00000007 00f30166  g..............f
 00d0 8c00229f de000000 fa000000 0900f301  ..".............
 00e0 668c0022 23019ffa 000000fc 00000007  f.."#...........
 00f0 008c00f3 0166229f fc000000 fe000000  .....f".........
 0100 0900f301 668c0022 23019f00 00000000  ....f.."#.......
 0110 000000be 000000d8 00000006 00649301  .............d..
 0120 659301d8 000000fa 00000007 008c0020  e.............. 
 0130 7e00229f fa000000 fc000000 06007e00  ~."...........~.
 0140 8c001c9f fc000000 fe000000 07008c00  ................
 0150 207e0022 9ffe0000 00040100 0008008c   ~."............
 0160 0020f301 64229f00 00000000 000000d2  . ..d"..........
 0170 000000d8 00000002 00309fd8 00000004  .........0......
 0180 01000006 006c9301 6d930100 00000000  .....l..m.......
 0190 00000014 01000018 01000006 00689301  .............h..
 01a0 69930118 0100001a 01000004 00f30168  i..............h
 01b0 9f000000 00000000 001a0100 00260100  .............&..
 01c0 00060068 93016993 01260100 00380100  ...h..i..&...8..
 01d0 0006006e 93016f93 01000000 00000000  ...n..o.........
 01e0 00380100 003e0100 00060068 93016993  .8...>.....h..i.
 01f0 013e0100 00600100 0006006e 93016f93  .>...`.....n..o.
 0200 01000000 00000000 004e0100 005a0100  .........N...Z..
 0210 00010068 00000000 00000000 60010000  ...h........`...
 0220 66010000 06006893 01699301 66010000  f.....h..i..f...
 0230 70010000 06006e93 016f9301 70010000  p.....n..o..p...
 0240 76010000 0400f301 689f7601 00007c01  v.......h.v...|.
 0250 00000600 6e93016f 93010000 00000000  ....n..o........
 0260 00007c01 00008401 00000600 68930169  ..|.........h..i
 0270 93018401 00009401 00000600 6e93016f  ............n..o
 0280 93010000 00000000 0000a801 0000ac01  ................
 0290 00000600 68930169 9301ac01 0000e401  ....h..i........
 02a0 00000600 6e93016f 9301e401 0000ec01  ....n..o........
 02b0 00000400 f301689f 00000000 00000000  ......h.........
 02c0 de010000 e4010000 06006e93 016f9301  ..........n..o..
 02d0 e4010000 ea010000 0400f301 689f0000  ............h...
 02e0 00000000 0000ec01 0000ee01 00000300  ................
 02f0 922002ee 010000f0 01000003 00922003  . ............ .
 0300 f0010000 f2010000 03009220 04f20100  ........... ....
 0310 00f40100 00030092 2005f401 0000f601  ........ .......
 0320 00000300 922006f6 010000f8 01000003  ..... ..........
 0330 00922007 f8010000 86020000 03009220  .. ............ 
 0340 08000000 00000000 00ec0100 00fc0100  ................
 0350 00060068 93016993 01fc0100 007c0200  ...h..i......|..
 0360 0006006c 93016d93 017c0200 00860200  ...l..m..|......
 0370 000400f3 01689f00 00000000 000000ec  .....h..........
 0380 01000020 02000001 00662002 00005c02  ... .....f ...\.
 0390 00000100 5f5c0200 00700200 00010066  ...._\...p.....f
 03a0 70020000 86020000 0400f301 669f0000  p...........f...
 03b0 00000000 00005e02 00007002 00000100  ......^...p.....
 03c0 69000000 00000000 00600200 00700200  i........`...p..
 03d0 00020031 9f720200 00860200 00020030  ...1.r.........0
 03e0 9f000000 00000000 00120200 005c0200  .............\..
 03f0 0001005f 00000000 00000000 12020000  ..._............
 0400 5c020000 06006c93 016d9301 00000000  \.....l..m......
 0410 00000000 20020000 5c020000 01006000  .... ...\.....`.
 0420 00000000 0000004e 0200005c 02000001  .......N...\....
 0430 00690000 00000000 00005002 00005c02  .i........P...\.
 0440 00000200 319f0000 00000000 00008602  ....1...........
 0450 00008802 00000300 92200288 0200008a  ......... ......
 0460 02000003 00922003 8a020000 ca020000  ...... .........
 0470 03009220 04000000 00000000 00860200  ... ............
 0480 008e0200 00060068 93016993 018e0200  .......h..i.....
 0490 00c80200 0006006c 93016d93 01c80200  .......l..m.....
 04a0 00ca0200 000400f3 01689f00 00000000  .........h......
 04b0 000000de 020000f8 02000006 00689301  .............h..
 04c0 699301f8 020000fb 02000006 00669301  i............f..
 04d0 679301fb 020000fc 02000004 00f30168  g..............h
 04e0 9ffc0200 00000300 00060068 93016993  ...........h..i.
 04f0 01000300 00020300 000400f3 01689f00  .............h..
 0500 00000000 00000002 03000004 03000003  ................
 0510 00922002 04030000 06030000 03009220  .. ............ 
 0520 03060300 00080300 00030092 20040803  ............ ...
 0530 00000a03 00000300 9220050a 0300000c  ......... ......
 0540 03000003 00922006 0c030000 0e030000  ...... .........
 0550 03009220 070e0300 00100300 00030092  ... ............
 0560 20081003 00001203 00000300 92200912   ............ ..
 0570 03000016 03000003 0092200a 16030000  .......... .....
 0580 18030000 02008c0a 18030000 84030000  ................
 0590 02008c2b 00000000 00000000 02030000  ...+............
 05a0 38030000 0c006693 01679301 68930169  8.....f..g..h..i
 05b0 93013803 00004003 00000c00 66930167  ..8...@.....f..g
 05c0 93016893 01699301 46030000 65030000  ..h..i..F...e...
 05d0 0c006293 01639301 64930165 93010000  ..b..c..d..e....
 05e0 00000000 00000203 00002a03 00000100  ..........*.....
 05f0 642a0300 00380300 000400f3 01649f00  d*...8.......d..
 0600 00000000 00000022 03000038 03000003  ......."...8....
 0610 0091769f 38030000 7a030000 06006093  ..v.8...z.....`.
 0620 01619301 00000000 00000000 42030000  .a..........B...
 0630 44030000 01006644 03000050 03000001  D.....fD...P....
 0640 006e5003 00005203 00000300 8e509f52  .nP...R......P.R
 0650 03000054 03000001 006e0000 00000000  ...T.....n......
 0660 00008803 00008a03 00000300 9220028a  ............. ..
 0670 0300008c 03000003 00922003 8c030000  .......... .....
 0680 94030000 03009220 04940300 00960300  ....... ........
 0690 00030092 20059603 00009803 00000300  .... ...........
 06a0 92200698 0300009a 03000003 00922007  . ............ .
 06b0 9a030000 9c030000 03009220 089c0300  ........... ....
 06c0 009e0300 00030092 20099e03 00001c04  ........ .......
 06d0 00000300 92200a00 00000000 000000ae  ..... ..........
 06e0 030000b2 0300000c 00689301 6993016a  .........h..i..j
 06f0 93016b93 01b20300 00c00300 00030088  ..k.............
 0700 019fc003 0000c203 00000c00 68930169  ............h..i
 0710 93016a93 016b9301 c2030000 cc030000  ..j..k..........
 0720 03008801 9fcc0300 00f00300 000c0068  ...............h
 0730 93016993 016a9301 6b9301f0 03000006  ..i..j..k.......
 0740 04000005 00033901 80000000 00000000  ......9.........
 0750 0000b203 0000b603 00000100 63b60300  ............c...
 0760 00c40300 00010062 c4030000 c6030000  .......b........
 0770 03008303 9fc60300 00120400 00010062  ...............b
 0780 12040000 16040000 05000338 01800000  ...........8....
 0790 00000000 00000052 050000c6 05000004  .......R........
 07a0 000a00e1 9f000000 00000000 00520500  .............R..
 07b0 00c60500 00020036 9f000000 00000000  .......6........
 07c0 00520500 00680500 00030008 229f6805  .R...h......".h.
 07d0 0000c605 00000200 409f0000 00000000  ........@.......
 07e0 0000da05 0000dc05 00000c00 68930169  ............h..i
 07f0 93016a93 016b9301 00000000 00000000  ..j..k..........
 0800 c8050000 dc050000 01006200 00000000  ..........b.....
 0810 00000034 06000036 0600000c 005c9301  ...4...6.....\..
 0820 5d93015e 93015f93 01000000 00000000  ]..^.._.........
 0830 00220600 00360600 00010068 00000000  ."...6.....h....
 0840 00000000 3e060000 4c060000 02003a9f  ....>...L.....:.
 0850 00000000 00000000 3e060000 4c060000  ........>...L...
 0860 06000cc0 c62d009f 00000000 00000000  .....-..........
 0870 54060000 7a060000 02003a9f 00000000  T...z.....:.....
 0880 00000000 54060000 70060000 0a007c00  ....T...p.....|.
 0890 03300180 00061c9f 70060000 79060000  .0......p...y...
 08a0 0c006293 01639301 64930165 93010000  ..b..c..d..e....
 08b0 00000000 00009006 0000e806 00000200  ................
 08c0 319f0000 00000000 00009006 0000e806  1...............
 08d0 00000300 09ff9f00 00000000 0000001c  ................
 08e0 0400001e 04000003 00922002 1e040000  .......... .....
 08f0 20040000 03009220 03200400 00280400   ...... . ...(..
 0900 00030092 20042804 00002a04 00000300  .... .(...*.....
 0910 9220052a 0400002c 04000003 00922006  . .*...,...... .
 0920 2c040000 2e040000 03009220 072e0400  ,.......... ....
 0930 00300400 00030092 20083004 00003204  .0...... .0...2.
 0940 00000300 92200932 04000034 04000003  ..... .2...4....
 0950 0092200a 34040000 36040000 03009220  .. .4...6...... 
 0960 0b360400 00380400 00030092 200c3804  .6...8...... .8.
 0970 00003a04 00000300 92200d3a 0400003c  ..:...... .:...<
 0980 04000003 0092200e 3c040000 3e040000  ...... .<...>...
 0990 03009220 0f3e0400 00680400 00030092  ... .>...h......
 09a0 20100000 00000000 00006804 00006a04   .........h...j.
 09b0 00000300 9220026a 0400006c 04000003  ..... .j...l....
 09c0 00922003 6c040000 74040000 03009220  .. .l...t...... 
 09d0 04740400 00760400 00030092 20057604  .t...v...... .v.
 09e0 00007804 00000300 92200678 0400007a  ..x...... .x...z
 09f0 04000003 00922007 7a040000 7c040000  ...... .z...|...
 0a00 03009220 087c0400 00cc0400 00030092  ... .|..........
 0a10 20090000 00000000 00009404 0000b604   ...............
 0a20 00000100 69000000 00000000 009c0400  ....i...........
 0a30 00b60400 00010068 00000000 00000000  .......h........
Contents of section .debug_ranges:
 0000 be000000 cc040000 cc040000 90060000  ................
 0010 90060000 ea060000 00000000 00000000  ................

Disassembly of section .text:

00000000 <__vectors>:
   0:	0c 94 35 00 	jmp	0x6a	; 0x6a <__ctors_end>
   4:	0c 94 5d 00 	jmp	0xba	; 0xba <__bad_interrupt>
   8:	0c 94 5d 00 	jmp	0xba	; 0xba <__bad_interrupt>
   c:	0c 94 5d 00 	jmp	0xba	; 0xba <__bad_interrupt>
  10:	0c 94 5d 00 	jmp	0xba	; 0xba <__bad_interrupt>
  14:	0c 94 5d 00 	jmp	0xba	; 0xba <__bad_interrupt>
  18:	0c 94 5d 00 	jmp	0xba	; 0xba <__bad_interrupt>
  1c:	0c 94 5d 00 	jmp	0xba	; 0xba <__bad_interrupt>
  20:	0c 94 5d 00 	jmp	0xba	; 0xba <__bad_interrupt>
  24:	0c 94 5d 00 	jmp	0xba	; 0xba <__bad_interrupt>
  28:	0c 94 5d 00 	jmp	0xba	; 0xba <__bad_interrupt>
  2c:	0c 94 5d 00 	jmp	0xba	; 0xba <__bad_interrupt>
  30:	0c 94 5d 00 	jmp	0xba	; 0xba <__bad_interrupt>
  34:	0c 94 5d 00 	jmp	0xba	; 0xba <__bad_interrupt>
  38:	0c 94 5d 00 	jmp	0xba	; 0xba <__bad_interrupt>
  3c:	0c 94 5d 00 	jmp	0xba	; 0xba <__bad_interrupt>
  40:	0c 94 c4 01 	jmp	0x388	; 0x388 <__vector_16>
  44:	0c 94 5d 00 	jmp	0xba	; 0xba <__bad_interrupt>
  48:	0c 94 34 02 	jmp	0x468	; 0x468 <__vector_18>
  4c:	0c 94 0e 02 	jmp	0x41c	; 0x41c <__vector_19>
  50:	0c 94 5d 00 	jmp	0xba	; 0xba <__bad_interrupt>
  54:	0c 94 5d 00 	jmp	0xba	; 0xba <__bad_interrupt>
  58:	0c 94 5d 00 	jmp	0xba	; 0xba <__bad_interrupt>
  5c:	0c 94 5d 00 	jmp	0xba	; 0xba <__bad_interrupt>
  60:	0c 94 5d 00 	jmp	0xba	; 0xba <__bad_interrupt>
  64:	0c 94 5d 00 	jmp	0xba	; 0xba <__bad_interrupt>

00000068 <__ctors_start>:
  68:	48 03       	fmul	r20, r16

0000006a <__ctors_end>:
  6a:	11 24       	eor	r1, r1
  6c:	1f be       	out	0x3f, r1	; 63
  6e:	cf ef       	ldi	r28, 0xFF	; 255
  70:	d8 e0       	ldi	r29, 0x08	; 8
  72:	de bf       	out	0x3e, r29	; 62
  74:	cd bf       	out	0x3d, r28	; 61

00000076 <__do_copy_data>:
  76:	11 e0       	ldi	r17, 0x01	; 1
  78:	a0 e0       	ldi	r26, 0x00	; 0
  7a:	b1 e0       	ldi	r27, 0x01	; 1
  7c:	e8 e4       	ldi	r30, 0x48	; 72
  7e:	f7 e0       	ldi	r31, 0x07	; 7
  80:	02 c0       	rjmp	.+4      	; 0x86 <__do_copy_data+0x10>
  82:	05 90       	lpm	r0, Z+
  84:	0d 92       	st	X+, r0
  86:	a0 33       	cpi	r26, 0x30	; 48
  88:	b1 07       	cpc	r27, r17
  8a:	d9 f7       	brne	.-10     	; 0x82 <__do_copy_data+0xc>

0000008c <__do_clear_bss>:
  8c:	21 e0       	ldi	r18, 0x01	; 1
  8e:	a0 e3       	ldi	r26, 0x30	; 48
  90:	b1 e0       	ldi	r27, 0x01	; 1
  92:	01 c0       	rjmp	.+2      	; 0x96 <.do_clear_bss_start>

00000094 <.do_clear_bss_loop>:
  94:	1d 92       	st	X+, r1

00000096 <.do_clear_bss_start>:
  96:	aa 3d       	cpi	r26, 0xDA	; 218
  98:	b2 07       	cpc	r27, r18
  9a:	e1 f7       	brne	.-8      	; 0x94 <.do_clear_bss_loop>

0000009c <__do_global_ctors>:
  9c:	10 e0       	ldi	r17, 0x00	; 0
  9e:	c5 e3       	ldi	r28, 0x35	; 53
  a0:	d0 e0       	ldi	r29, 0x00	; 0
  a2:	04 c0       	rjmp	.+8      	; 0xac <__do_global_ctors+0x10>
  a4:	21 97       	sbiw	r28, 0x01	; 1
  a6:	fe 01       	movw	r30, r28
  a8:	0e 94 97 03 	call	0x72e	; 0x72e <__tablejump2__>
  ac:	c4 33       	cpi	r28, 0x34	; 52
  ae:	d1 07       	cpc	r29, r17
  b0:	c9 f7       	brne	.-14     	; 0xa4 <__do_global_ctors+0x8>
  b2:	0e 94 66 02 	call	0x4cc	; 0x4cc <main>
  b6:	0c 94 a2 03 	jmp	0x744	; 0x744 <_exit>

000000ba <__bad_interrupt>:
  ba:	0c 94 00 00 	jmp	0	; 0x0 <__vectors>

000000be <_ZN5Print5writeEPKhj>:

// Public Methods //////////////////////////////////////////////////////////////

/* default implementation: may be overridden */
size_t Print::write(const uint8_t *buffer, size_t size)
{
  be:	cf 92       	push	r12
  c0:	df 92       	push	r13
  c2:	ef 92       	push	r14
  c4:	ff 92       	push	r15
  c6:	0f 93       	push	r16
  c8:	1f 93       	push	r17
  ca:	cf 93       	push	r28
  cc:	df 93       	push	r29
  ce:	6c 01       	movw	r12, r24
  d0:	7a 01       	movw	r14, r20
  d2:	8b 01       	movw	r16, r22
  size_t n = 0;
  d4:	c0 e0       	ldi	r28, 0x00	; 0
  d6:	d0 e0       	ldi	r29, 0x00	; 0
  while (size--) {
  d8:	ce 15       	cp	r28, r14
  da:	df 05       	cpc	r29, r15
  dc:	81 f0       	breq	.+32     	; 0xfe <_ZN5Print5writeEPKhj+0x40>
    if (write(*buffer++)) n++;
  de:	d8 01       	movw	r26, r16
  e0:	6d 91       	ld	r22, X+
  e2:	8d 01       	movw	r16, r26
  e4:	d6 01       	movw	r26, r12
  e6:	ed 91       	ld	r30, X+
  e8:	fc 91       	ld	r31, X
  ea:	01 90       	ld	r0, Z+
  ec:	f0 81       	ld	r31, Z
  ee:	e0 2d       	mov	r30, r0
  f0:	c6 01       	movw	r24, r12
  f2:	09 95       	icall
  f4:	89 2b       	or	r24, r25
  f6:	11 f0       	breq	.+4      	; 0xfc <_ZN5Print5writeEPKhj+0x3e>
  f8:	21 96       	adiw	r28, 0x01	; 1
  fa:	ee cf       	rjmp	.-36     	; 0xd8 <_ZN5Print5writeEPKhj+0x1a>
  fc:	7e 01       	movw	r14, r28
    else break;
  }
  return n;
}
  fe:	c7 01       	movw	r24, r14
 100:	df 91       	pop	r29
 102:	cf 91       	pop	r28
 104:	1f 91       	pop	r17
 106:	0f 91       	pop	r16
 108:	ff 90       	pop	r15
 10a:	ef 90       	pop	r14
 10c:	df 90       	pop	r13
 10e:	cf 90       	pop	r12
 110:	08 95       	ret

00000112 <_ZN5Print5flushEv>:
    size_t println(unsigned long, int = DEC);
    size_t println(double, int = 2);
    size_t println(const Printable&);
    size_t println(void);

    virtual void flush() { /* Empty implementation for backward compatibility */ }
 112:	08 95       	ret

00000114 <_ZN5Print17availableForWriteEv>:
      return write((const uint8_t *)buffer, size);
    }

    // default to zero, meaning "a single write may block"
    // should be overriden by subclasses with buffering
    virtual int availableForWrite() { return 0; }
 114:	80 e0       	ldi	r24, 0x00	; 0
 116:	90 e0       	ldi	r25, 0x00	; 0
 118:	08 95       	ret

0000011a <_ZN14HardwareSerial17availableForWriteEv>:
{
  tx_buffer_index_t head;
  tx_buffer_index_t tail;

  TX_BUFFER_ATOMIC {
    head = _tx_buffer_head;
 11a:	fc 01       	movw	r30, r24
 11c:	53 8d       	ldd	r21, Z+27	; 0x1b
    tail = _tx_buffer_tail;
 11e:	44 8d       	ldd	r20, Z+28	; 0x1c
 120:	25 2f       	mov	r18, r21
 122:	30 e0       	ldi	r19, 0x00	; 0
 124:	84 2f       	mov	r24, r20
 126:	90 e0       	ldi	r25, 0x00	; 0
  }
  if (head >= tail) return SERIAL_TX_BUFFER_SIZE - 1 - head + tail;
 128:	82 1b       	sub	r24, r18
 12a:	93 0b       	sbc	r25, r19
 12c:	54 17       	cp	r21, r20
 12e:	10 f0       	brcs	.+4      	; 0x134 <_ZN14HardwareSerial17availableForWriteEv+0x1a>
 130:	cf 96       	adiw	r24, 0x3f	; 63
 132:	08 95       	ret
  return tail - head - 1;
 134:	01 97       	sbiw	r24, 0x01	; 1
}
 136:	08 95       	ret

00000138 <_ZN14HardwareSerial4readEv>:
    return _rx_buffer[_rx_buffer_tail];
  }
}

int HardwareSerial::read(void)
{
 138:	fc 01       	movw	r30, r24
  // if the head isn't ahead of the tail, we don't have any characters
  if (_rx_buffer_head == _rx_buffer_tail) {
 13a:	91 8d       	ldd	r25, Z+25	; 0x19
 13c:	82 8d       	ldd	r24, Z+26	; 0x1a
 13e:	98 17       	cp	r25, r24
 140:	61 f0       	breq	.+24     	; 0x15a <_ZN14HardwareSerial4readEv+0x22>
    return -1;
  } else {
    unsigned char c = _rx_buffer[_rx_buffer_tail];
 142:	82 8d       	ldd	r24, Z+26	; 0x1a
 144:	df 01       	movw	r26, r30
 146:	a8 0f       	add	r26, r24
 148:	b1 1d       	adc	r27, r1
 14a:	5d 96       	adiw	r26, 0x1d	; 29
 14c:	8c 91       	ld	r24, X
    _rx_buffer_tail = (rx_buffer_index_t)(_rx_buffer_tail + 1) % SERIAL_RX_BUFFER_SIZE;
 14e:	92 8d       	ldd	r25, Z+26	; 0x1a
 150:	9f 5f       	subi	r25, 0xFF	; 255
 152:	9f 73       	andi	r25, 0x3F	; 63
 154:	92 8f       	std	Z+26, r25	; 0x1a
    return c;
 156:	90 e0       	ldi	r25, 0x00	; 0
 158:	08 95       	ret

int HardwareSerial::read(void)
{
  // if the head isn't ahead of the tail, we don't have any characters
  if (_rx_buffer_head == _rx_buffer_tail) {
    return -1;
 15a:	8f ef       	ldi	r24, 0xFF	; 255
 15c:	9f ef       	ldi	r25, 0xFF	; 255
  } else {
    unsigned char c = _rx_buffer[_rx_buffer_tail];
    _rx_buffer_tail = (rx_buffer_index_t)(_rx_buffer_tail + 1) % SERIAL_RX_BUFFER_SIZE;
    return c;
  }
}
 15e:	08 95       	ret

00000160 <_ZN14HardwareSerial4peekEv>:
{
  return ((unsigned int)(SERIAL_RX_BUFFER_SIZE + _rx_buffer_head - _rx_buffer_tail)) % SERIAL_RX_BUFFER_SIZE;
}

int HardwareSerial::peek(void)
{
 160:	fc 01       	movw	r30, r24
  if (_rx_buffer_head == _rx_buffer_tail) {
 162:	91 8d       	ldd	r25, Z+25	; 0x19
 164:	82 8d       	ldd	r24, Z+26	; 0x1a
 166:	98 17       	cp	r25, r24
 168:	31 f0       	breq	.+12     	; 0x176 <_ZN14HardwareSerial4peekEv+0x16>
    return -1;
  } else {
    return _rx_buffer[_rx_buffer_tail];
 16a:	82 8d       	ldd	r24, Z+26	; 0x1a
 16c:	e8 0f       	add	r30, r24
 16e:	f1 1d       	adc	r31, r1
 170:	85 8d       	ldd	r24, Z+29	; 0x1d
 172:	90 e0       	ldi	r25, 0x00	; 0
 174:	08 95       	ret
}

int HardwareSerial::peek(void)
{
  if (_rx_buffer_head == _rx_buffer_tail) {
    return -1;
 176:	8f ef       	ldi	r24, 0xFF	; 255
 178:	9f ef       	ldi	r25, 0xFF	; 255
  } else {
    return _rx_buffer[_rx_buffer_tail];
  }
}
 17a:	08 95       	ret

0000017c <_ZN14HardwareSerial9availableEv>:
  // clear any received data
  _rx_buffer_head = _rx_buffer_tail;
}

int HardwareSerial::available(void)
{
 17c:	fc 01       	movw	r30, r24
  return ((unsigned int)(SERIAL_RX_BUFFER_SIZE + _rx_buffer_head - _rx_buffer_tail)) % SERIAL_RX_BUFFER_SIZE;
 17e:	91 8d       	ldd	r25, Z+25	; 0x19
 180:	22 8d       	ldd	r18, Z+26	; 0x1a
 182:	89 2f       	mov	r24, r25
 184:	90 e0       	ldi	r25, 0x00	; 0
 186:	80 5c       	subi	r24, 0xC0	; 192
 188:	9f 4f       	sbci	r25, 0xFF	; 255
 18a:	82 1b       	sub	r24, r18
 18c:	91 09       	sbc	r25, r1
}
 18e:	8f 73       	andi	r24, 0x3F	; 63
 190:	99 27       	eor	r25, r25
 192:	08 95       	ret

00000194 <_Z17Serial0_availablev>:
#endif

// Function that can be weakly referenced by serialEventRun to prevent
// pulling in this file if it's not otherwise used.
bool Serial0_available() {
  return Serial.available();
 194:	8d e3       	ldi	r24, 0x3D	; 61
 196:	91 e0       	ldi	r25, 0x01	; 1
 198:	0e 94 be 00 	call	0x17c	; 0x17c <_ZN14HardwareSerial9availableEv>
 19c:	21 e0       	ldi	r18, 0x01	; 1
 19e:	89 2b       	or	r24, r25
 1a0:	09 f4       	brne	.+2      	; 0x1a4 <_Z17Serial0_availablev+0x10>
 1a2:	20 e0       	ldi	r18, 0x00	; 0
}
 1a4:	82 2f       	mov	r24, r18
 1a6:	08 95       	ret

000001a8 <_ZN14HardwareSerial17_tx_udr_empty_irqEv>:
#endif

// Actual interrupt handlers //////////////////////////////////////////////////////////////

void HardwareSerial::_tx_udr_empty_irq(void)
{
 1a8:	fc 01       	movw	r30, r24
  // If interrupts are enabled, there must be more data in the output
  // buffer. Send the next byte
  unsigned char c = _tx_buffer[_tx_buffer_tail];
 1aa:	84 8d       	ldd	r24, Z+28	; 0x1c
 1ac:	df 01       	movw	r26, r30
 1ae:	a8 0f       	add	r26, r24
 1b0:	b1 1d       	adc	r27, r1
 1b2:	a3 5a       	subi	r26, 0xA3	; 163
 1b4:	bf 4f       	sbci	r27, 0xFF	; 255
 1b6:	2c 91       	ld	r18, X
  _tx_buffer_tail = (_tx_buffer_tail + 1) % SERIAL_TX_BUFFER_SIZE;
 1b8:	84 8d       	ldd	r24, Z+28	; 0x1c
 1ba:	90 e0       	ldi	r25, 0x00	; 0
 1bc:	01 96       	adiw	r24, 0x01	; 1
 1be:	8f 73       	andi	r24, 0x3F	; 63
 1c0:	99 27       	eor	r25, r25
 1c2:	84 8f       	std	Z+28, r24	; 0x1c

  *_udr = c;
 1c4:	a6 89       	ldd	r26, Z+22	; 0x16
 1c6:	b7 89       	ldd	r27, Z+23	; 0x17
 1c8:	2c 93       	st	X, r18
  // location". This makes sure flush() won't return until the bytes
  // actually got written. Other r/w bits are preserved, and zeroes
  // written to the rest.

#ifdef MPCM0
  *_ucsra = ((*_ucsra) & ((1 << U2X0) | (1 << MPCM0))) | (1 << TXC0);
 1ca:	a0 89       	ldd	r26, Z+16	; 0x10
 1cc:	b1 89       	ldd	r27, Z+17	; 0x11
 1ce:	8c 91       	ld	r24, X
 1d0:	83 70       	andi	r24, 0x03	; 3
 1d2:	80 64       	ori	r24, 0x40	; 64
 1d4:	8c 93       	st	X, r24
#else
  *_ucsra = ((*_ucsra) & ((1 << U2X0) | (1 << TXC0)));
#endif

  if (_tx_buffer_head == _tx_buffer_tail) {
 1d6:	93 8d       	ldd	r25, Z+27	; 0x1b
 1d8:	84 8d       	ldd	r24, Z+28	; 0x1c
 1da:	98 13       	cpse	r25, r24
 1dc:	06 c0       	rjmp	.+12     	; 0x1ea <_ZN14HardwareSerial17_tx_udr_empty_irqEv+0x42>
    // Buffer empty, so disable interrupts
    cbi(*_ucsrb, UDRIE0);
 1de:	02 88       	ldd	r0, Z+18	; 0x12
 1e0:	f3 89       	ldd	r31, Z+19	; 0x13
 1e2:	e0 2d       	mov	r30, r0
 1e4:	80 81       	ld	r24, Z
 1e6:	8f 7d       	andi	r24, 0xDF	; 223
 1e8:	80 83       	st	Z, r24
 1ea:	08 95       	ret

000001ec <_ZN14HardwareSerial5writeEh>:
  // If we get here, nothing is queued anymore (DRIE is disabled) and
  // the hardware finished tranmission (TXC is set).
}

size_t HardwareSerial::write(uint8_t c)
{
 1ec:	ef 92       	push	r14
 1ee:	ff 92       	push	r15
 1f0:	0f 93       	push	r16
 1f2:	1f 93       	push	r17
 1f4:	cf 93       	push	r28
 1f6:	df 93       	push	r29
 1f8:	ec 01       	movw	r28, r24
  _written = true;
 1fa:	81 e0       	ldi	r24, 0x01	; 1
 1fc:	88 8f       	std	Y+24, r24	; 0x18
  // If the buffer and the data register is empty, just write the byte
  // to the data register and be done. This shortcut helps
  // significantly improve the effective datarate at high (>
  // 500kbit/s) bitrates, where interrupt overhead becomes a slowdown.
  if (_tx_buffer_head == _tx_buffer_tail && bit_is_set(*_ucsra, UDRE0)) {
 1fe:	9b 8d       	ldd	r25, Y+27	; 0x1b
 200:	8c 8d       	ldd	r24, Y+28	; 0x1c
 202:	98 13       	cpse	r25, r24
 204:	05 c0       	rjmp	.+10     	; 0x210 <_ZN14HardwareSerial5writeEh+0x24>
 206:	e8 89       	ldd	r30, Y+16	; 0x10
 208:	f9 89       	ldd	r31, Y+17	; 0x11
 20a:	80 81       	ld	r24, Z
 20c:	85 fd       	sbrc	r24, 5
 20e:	26 c0       	rjmp	.+76     	; 0x25c <_ZN14HardwareSerial5writeEh+0x70>
 210:	f6 2e       	mov	r15, r22
      *_ucsra = ((*_ucsra) & ((1 << U2X0) | (1 << TXC0)));
#endif
    }
    return 1;
  }
  tx_buffer_index_t i = (_tx_buffer_head + 1) % SERIAL_TX_BUFFER_SIZE;
 212:	0b 8d       	ldd	r16, Y+27	; 0x1b
 214:	10 e0       	ldi	r17, 0x00	; 0
 216:	0f 5f       	subi	r16, 0xFF	; 255
 218:	1f 4f       	sbci	r17, 0xFF	; 255
 21a:	0f 73       	andi	r16, 0x3F	; 63
 21c:	11 27       	eor	r17, r17
 21e:	e0 2e       	mov	r14, r16
	
  // If the output buffer is full, there's nothing for it other than to 
  // wait for the interrupt handler to empty it a bit
  while (i == _tx_buffer_tail) {
 220:	8c 8d       	ldd	r24, Y+28	; 0x1c
 222:	e8 12       	cpse	r14, r24
 224:	0c c0       	rjmp	.+24     	; 0x23e <_ZN14HardwareSerial5writeEh+0x52>
    if (bit_is_clear(SREG, SREG_I)) {
 226:	0f b6       	in	r0, 0x3f	; 63
 228:	07 fc       	sbrc	r0, 7
 22a:	fa cf       	rjmp	.-12     	; 0x220 <_ZN14HardwareSerial5writeEh+0x34>
      // Interrupts are disabled, so we'll have to poll the data
      // register empty flag ourselves. If it is set, pretend an
      // interrupt has happened and call the handler to free up
      // space for us.
      if(bit_is_set(*_ucsra, UDRE0))
 22c:	e8 89       	ldd	r30, Y+16	; 0x10
 22e:	f9 89       	ldd	r31, Y+17	; 0x11
 230:	80 81       	ld	r24, Z
 232:	85 ff       	sbrs	r24, 5
 234:	f5 cf       	rjmp	.-22     	; 0x220 <_ZN14HardwareSerial5writeEh+0x34>
	_tx_udr_empty_irq();
 236:	ce 01       	movw	r24, r28
 238:	0e 94 d4 00 	call	0x1a8	; 0x1a8 <_ZN14HardwareSerial17_tx_udr_empty_irqEv>
 23c:	f1 cf       	rjmp	.-30     	; 0x220 <_ZN14HardwareSerial5writeEh+0x34>
    } else {
      // nop, the interrupt handler will free up space for us
    }
  }

  _tx_buffer[_tx_buffer_head] = c;
 23e:	8b 8d       	ldd	r24, Y+27	; 0x1b
 240:	fe 01       	movw	r30, r28
 242:	e8 0f       	add	r30, r24
 244:	f1 1d       	adc	r31, r1
 246:	e3 5a       	subi	r30, 0xA3	; 163
 248:	ff 4f       	sbci	r31, 0xFF	; 255
 24a:	f0 82       	st	Z, r15

  // make atomic to prevent execution of ISR between setting the
  // head pointer and setting the interrupt flag resulting in buffer
  // retransmission
  ATOMIC_BLOCK(ATOMIC_RESTORESTATE) {
 24c:	9f b7       	in	r25, 0x3f	; 63
    return 1;
}

static __inline__ uint8_t __iCliRetVal(void)
{
    cli();
 24e:	f8 94       	cli
    _tx_buffer_head = i;
 250:	0b 8f       	std	Y+27, r16	; 0x1b
    sbi(*_ucsrb, UDRIE0);
 252:	ea 89       	ldd	r30, Y+18	; 0x12
 254:	fb 89       	ldd	r31, Y+19	; 0x13
 256:	80 81       	ld	r24, Z
 258:	80 62       	ori	r24, 0x20	; 32
 25a:	0a c0       	rjmp	.+20     	; 0x270 <_ZN14HardwareSerial5writeEh+0x84>
    // So writing UDR must happen first.
    // Writing UDR and clearing TC must be done atomically, otherwise
    // interrupts might delay the TXC clear so the byte written to UDR
    // is transmitted (setting TXC) before clearing TXC. Then TXC will
    // be cleared when no bytes are left, causing flush() to hang
    ATOMIC_BLOCK(ATOMIC_RESTORESTATE) {
 25c:	9f b7       	in	r25, 0x3f	; 63
 25e:	f8 94       	cli
      *_udr = c;
 260:	ee 89       	ldd	r30, Y+22	; 0x16
 262:	ff 89       	ldd	r31, Y+23	; 0x17
 264:	60 83       	st	Z, r22
#ifdef MPCM0
      *_ucsra = ((*_ucsra) & ((1 << U2X0) | (1 << MPCM0))) | (1 << TXC0);
 266:	e8 89       	ldd	r30, Y+16	; 0x10
 268:	f9 89       	ldd	r31, Y+17	; 0x11
 26a:	80 81       	ld	r24, Z
 26c:	83 70       	andi	r24, 0x03	; 3
 26e:	80 64       	ori	r24, 0x40	; 64
 270:	80 83       	st	Z, r24
    (void)__s;
}

static __inline__ void __iRestore(const  uint8_t *__s)
{
    SREG = *__s;
 272:	9f bf       	out	0x3f, r25	; 63
    _tx_buffer_head = i;
    sbi(*_ucsrb, UDRIE0);
  }
  
  return 1;
}
 274:	81 e0       	ldi	r24, 0x01	; 1
 276:	90 e0       	ldi	r25, 0x00	; 0
 278:	df 91       	pop	r29
 27a:	cf 91       	pop	r28
 27c:	1f 91       	pop	r17
 27e:	0f 91       	pop	r16
 280:	ff 90       	pop	r15
 282:	ef 90       	pop	r14
 284:	08 95       	ret

00000286 <_ZN14HardwareSerial5flushEv>:
  if (head >= tail) return SERIAL_TX_BUFFER_SIZE - 1 - head + tail;
  return tail - head - 1;
}

void HardwareSerial::flush()
{
 286:	cf 93       	push	r28
 288:	df 93       	push	r29
 28a:	ec 01       	movw	r28, r24
  // If we have never written a byte, no need to flush. This special
  // case is needed since there is no way to force the TXC (transmit
  // complete) bit to 1 during initialization
  if (!_written)
 28c:	88 8d       	ldd	r24, Y+24	; 0x18
 28e:	88 23       	and	r24, r24
 290:	c9 f0       	breq	.+50     	; 0x2c4 <_ZN14HardwareSerial5flushEv+0x3e>
    return;

  while (bit_is_set(*_ucsrb, UDRIE0) || bit_is_clear(*_ucsra, TXC0)) {
 292:	ea 89       	ldd	r30, Y+18	; 0x12
 294:	fb 89       	ldd	r31, Y+19	; 0x13
 296:	80 81       	ld	r24, Z
 298:	85 fd       	sbrc	r24, 5
 29a:	05 c0       	rjmp	.+10     	; 0x2a6 <_ZN14HardwareSerial5flushEv+0x20>
 29c:	a8 89       	ldd	r26, Y+16	; 0x10
 29e:	b9 89       	ldd	r27, Y+17	; 0x11
 2a0:	8c 91       	ld	r24, X
 2a2:	86 fd       	sbrc	r24, 6
 2a4:	0f c0       	rjmp	.+30     	; 0x2c4 <_ZN14HardwareSerial5flushEv+0x3e>
    if (bit_is_clear(SREG, SREG_I) && bit_is_set(*_ucsrb, UDRIE0))
 2a6:	0f b6       	in	r0, 0x3f	; 63
 2a8:	07 fc       	sbrc	r0, 7
 2aa:	f5 cf       	rjmp	.-22     	; 0x296 <_ZN14HardwareSerial5flushEv+0x10>
 2ac:	80 81       	ld	r24, Z
 2ae:	85 ff       	sbrs	r24, 5
 2b0:	f2 cf       	rjmp	.-28     	; 0x296 <_ZN14HardwareSerial5flushEv+0x10>
	// Interrupts are globally disabled, but the DR empty
	// interrupt should be enabled, so poll the DR empty flag to
	// prevent deadlock
	if (bit_is_set(*_ucsra, UDRE0))
 2b2:	a8 89       	ldd	r26, Y+16	; 0x10
 2b4:	b9 89       	ldd	r27, Y+17	; 0x11
 2b6:	8c 91       	ld	r24, X
 2b8:	85 ff       	sbrs	r24, 5
 2ba:	ed cf       	rjmp	.-38     	; 0x296 <_ZN14HardwareSerial5flushEv+0x10>
	  _tx_udr_empty_irq();
 2bc:	ce 01       	movw	r24, r28
 2be:	0e 94 d4 00 	call	0x1a8	; 0x1a8 <_ZN14HardwareSerial17_tx_udr_empty_irqEv>
 2c2:	e7 cf       	rjmp	.-50     	; 0x292 <_ZN14HardwareSerial5flushEv+0xc>
  }
  // If we get here, nothing is queued anymore (DRIE is disabled) and
  // the hardware finished tranmission (TXC is set).
}
 2c4:	df 91       	pop	r29
 2c6:	cf 91       	pop	r28
 2c8:	08 95       	ret

000002ca <_Z14serialEventRunv>:
#endif

void serialEventRun(void)
{
#if defined(HAVE_HWSERIAL0)
  if (Serial0_available && serialEvent && Serial0_available()) serialEvent();
 2ca:	80 e0       	ldi	r24, 0x00	; 0
 2cc:	90 e0       	ldi	r25, 0x00	; 0
 2ce:	89 2b       	or	r24, r25
 2d0:	29 f0       	breq	.+10     	; 0x2dc <_Z14serialEventRunv+0x12>
 2d2:	0e 94 ca 00 	call	0x194	; 0x194 <_Z17Serial0_availablev>
 2d6:	81 11       	cpse	r24, r1
 2d8:	0c 94 00 00 	jmp	0	; 0x0 <__vectors>
 2dc:	08 95       	ret

000002de <_ZN5Print5writeEPKc.constprop.14>:
    int getWriteError() { return write_error; }
    void clearWriteError() { setWriteError(0); }
  
    virtual size_t write(uint8_t) = 0;
    size_t write(const char *str) {
      if (str == NULL) return 0;
 2de:	00 97       	sbiw	r24, 0x00	; 0
 2e0:	69 f0       	breq	.+26     	; 0x2fc <_ZN5Print5writeEPKc.constprop.14+0x1e>
      return write((const uint8_t *)str, strlen(str));
 2e2:	fc 01       	movw	r30, r24
 2e4:	01 90       	ld	r0, Z+
 2e6:	00 20       	and	r0, r0
 2e8:	e9 f7       	brne	.-6      	; 0x2e4 <_ZN5Print5writeEPKc.constprop.14+0x6>
 2ea:	31 97       	sbiw	r30, 0x01	; 1
 2ec:	af 01       	movw	r20, r30
 2ee:	48 1b       	sub	r20, r24
 2f0:	59 0b       	sbc	r21, r25
 2f2:	bc 01       	movw	r22, r24
 2f4:	8d e3       	ldi	r24, 0x3D	; 61
 2f6:	91 e0       	ldi	r25, 0x01	; 1
 2f8:	0c 94 5f 00 	jmp	0xbe	; 0xbe <_ZN5Print5writeEPKhj>
    }
 2fc:	80 e0       	ldi	r24, 0x00	; 0
 2fe:	90 e0       	ldi	r25, 0x00	; 0
 300:	08 95       	ret

00000302 <_ZN5Print11printNumberEmh.constprop.12>:
  return n;
}

// Private Methods /////////////////////////////////////////////////////////////

size_t Print::printNumber(unsigned long n, uint8_t base)
 302:	8f 92       	push	r8
 304:	9f 92       	push	r9
 306:	af 92       	push	r10
 308:	bf 92       	push	r11
 30a:	0f 93       	push	r16
 30c:	1f 93       	push	r17
 30e:	cf 93       	push	r28
 310:	df 93       	push	r29
 312:	cd b7       	in	r28, 0x3d	; 61
 314:	de b7       	in	r29, 0x3e	; 62
 316:	a1 97       	sbiw	r28, 0x21	; 33
 318:	0f b6       	in	r0, 0x3f	; 63
 31a:	f8 94       	cli
 31c:	de bf       	out	0x3e, r29	; 62
 31e:	0f be       	out	0x3f, r0	; 63
 320:	cd bf       	out	0x3d, r28	; 61
{
  char buf[8 * sizeof(long) + 1]; // Assumes 8-bit chars plus zero byte.
  char *str = &buf[sizeof(buf) - 1];

  *str = '\0';
 322:	19 a2       	std	Y+33, r1	; 0x21

  // prevent crash if called with base == 1
  if (base < 2) base = 10;
 324:	42 30       	cpi	r20, 0x02	; 2
 326:	08 f4       	brcc	.+2      	; 0x32a <_ZN5Print11printNumberEmh.constprop.12+0x28>
 328:	4a e0       	ldi	r20, 0x0A	; 10
 32a:	8e 01       	movw	r16, r28
 32c:	0f 5d       	subi	r16, 0xDF	; 223
 32e:	1f 4f       	sbci	r17, 0xFF	; 255

  do {
    char c = n % base;
 330:	84 2e       	mov	r8, r20
 332:	91 2c       	mov	r9, r1
 334:	a1 2c       	mov	r10, r1
 336:	b1 2c       	mov	r11, r1
 338:	a5 01       	movw	r20, r10
 33a:	94 01       	movw	r18, r8
 33c:	0e 94 75 03 	call	0x6ea	; 0x6ea <__udivmodsi4>
 340:	e6 2f       	mov	r30, r22
    n /= base;
 342:	b9 01       	movw	r22, r18
 344:	ca 01       	movw	r24, r20

    *--str = c < 10 ? c + '0' : c + 'A' - 10;
 346:	01 50       	subi	r16, 0x01	; 1
 348:	11 09       	sbc	r17, r1
 34a:	ea 30       	cpi	r30, 0x0A	; 10
 34c:	14 f4       	brge	.+4      	; 0x352 <_ZN5Print11printNumberEmh.constprop.12+0x50>
 34e:	e0 5d       	subi	r30, 0xD0	; 208
 350:	01 c0       	rjmp	.+2      	; 0x354 <_ZN5Print11printNumberEmh.constprop.12+0x52>
 352:	e9 5c       	subi	r30, 0xC9	; 201
 354:	d8 01       	movw	r26, r16
 356:	ec 93       	st	X, r30
  *str = '\0';

  // prevent crash if called with base == 1
  if (base < 2) base = 10;

  do {
 358:	23 2b       	or	r18, r19
 35a:	24 2b       	or	r18, r20
 35c:	25 2b       	or	r18, r21
 35e:	61 f7       	brne	.-40     	; 0x338 <_ZN5Print11printNumberEmh.constprop.12+0x36>
    n /= base;

    *--str = c < 10 ? c + '0' : c + 'A' - 10;
  } while(n);

  return write(str);
 360:	c8 01       	movw	r24, r16
 362:	0e 94 6f 01 	call	0x2de	; 0x2de <_ZN5Print5writeEPKc.constprop.14>
}
 366:	a1 96       	adiw	r28, 0x21	; 33
 368:	0f b6       	in	r0, 0x3f	; 63
 36a:	f8 94       	cli
 36c:	de bf       	out	0x3e, r29	; 62
 36e:	0f be       	out	0x3f, r0	; 63
 370:	cd bf       	out	0x3d, r28	; 61
 372:	df 91       	pop	r29
 374:	cf 91       	pop	r28
 376:	1f 91       	pop	r17
 378:	0f 91       	pop	r16
 37a:	bf 90       	pop	r11
 37c:	af 90       	pop	r10
 37e:	9f 90       	pop	r9
 380:	8f 90       	pop	r8
 382:	08 95       	ret

00000384 <__cxa_pure_virtual>:
extern "C" void __cxa_deleted_virtual(void) __attribute__ ((__noreturn__));

void __cxa_pure_virtual(void) {
  // We might want to write some diagnostics to uart in this case
  //std::terminate();
  abort();
 384:	0e 94 9d 03 	call	0x73a	; 0x73a <abort>

00000388 <__vector_16>:
#if defined(TIM0_OVF_vect)
ISR(TIM0_OVF_vect)
#else
ISR(TIMER0_OVF_vect)
#endif
{
 388:	1f 92       	push	r1
 38a:	0f 92       	push	r0
 38c:	0f b6       	in	r0, 0x3f	; 63
 38e:	0f 92       	push	r0
 390:	11 24       	eor	r1, r1
 392:	2f 93       	push	r18
 394:	3f 93       	push	r19
 396:	8f 93       	push	r24
 398:	9f 93       	push	r25
 39a:	af 93       	push	r26
 39c:	bf 93       	push	r27
	// copy these to local variables so they can be stored in registers
	// (volatile variables must be read from memory on every access)
	unsigned long m = timer0_millis;
 39e:	80 91 39 01 	lds	r24, 0x0139	; 0x800139 <timer0_millis>
 3a2:	90 91 3a 01 	lds	r25, 0x013A	; 0x80013a <timer0_millis+0x1>
 3a6:	a0 91 3b 01 	lds	r26, 0x013B	; 0x80013b <timer0_millis+0x2>
 3aa:	b0 91 3c 01 	lds	r27, 0x013C	; 0x80013c <timer0_millis+0x3>
	unsigned char f = timer0_fract;
 3ae:	30 91 38 01 	lds	r19, 0x0138	; 0x800138 <timer0_fract>

	m += MILLIS_INC;
	f += FRACT_INC;
 3b2:	23 e0       	ldi	r18, 0x03	; 3
 3b4:	23 0f       	add	r18, r19
	if (f >= FRACT_MAX) {
 3b6:	2d 37       	cpi	r18, 0x7D	; 125
 3b8:	20 f4       	brcc	.+8      	; 0x3c2 <__vector_16+0x3a>
	// copy these to local variables so they can be stored in registers
	// (volatile variables must be read from memory on every access)
	unsigned long m = timer0_millis;
	unsigned char f = timer0_fract;

	m += MILLIS_INC;
 3ba:	01 96       	adiw	r24, 0x01	; 1
 3bc:	a1 1d       	adc	r26, r1
 3be:	b1 1d       	adc	r27, r1
 3c0:	05 c0       	rjmp	.+10     	; 0x3cc <__vector_16+0x44>
	f += FRACT_INC;
	if (f >= FRACT_MAX) {
		f -= FRACT_MAX;
 3c2:	26 e8       	ldi	r18, 0x86	; 134
 3c4:	23 0f       	add	r18, r19
		m += 1;
 3c6:	02 96       	adiw	r24, 0x02	; 2
 3c8:	a1 1d       	adc	r26, r1
 3ca:	b1 1d       	adc	r27, r1
	}

	timer0_fract = f;
 3cc:	20 93 38 01 	sts	0x0138, r18	; 0x800138 <timer0_fract>
	timer0_millis = m;
 3d0:	80 93 39 01 	sts	0x0139, r24	; 0x800139 <timer0_millis>
 3d4:	90 93 3a 01 	sts	0x013A, r25	; 0x80013a <timer0_millis+0x1>
 3d8:	a0 93 3b 01 	sts	0x013B, r26	; 0x80013b <timer0_millis+0x2>
 3dc:	b0 93 3c 01 	sts	0x013C, r27	; 0x80013c <timer0_millis+0x3>
	timer0_overflow_count++;
 3e0:	80 91 34 01 	lds	r24, 0x0134	; 0x800134 <timer0_overflow_count>
 3e4:	90 91 35 01 	lds	r25, 0x0135	; 0x800135 <timer0_overflow_count+0x1>
 3e8:	a0 91 36 01 	lds	r26, 0x0136	; 0x800136 <timer0_overflow_count+0x2>
 3ec:	b0 91 37 01 	lds	r27, 0x0137	; 0x800137 <timer0_overflow_count+0x3>
 3f0:	01 96       	adiw	r24, 0x01	; 1
 3f2:	a1 1d       	adc	r26, r1
 3f4:	b1 1d       	adc	r27, r1
 3f6:	80 93 34 01 	sts	0x0134, r24	; 0x800134 <timer0_overflow_count>
 3fa:	90 93 35 01 	sts	0x0135, r25	; 0x800135 <timer0_overflow_count+0x1>
 3fe:	a0 93 36 01 	sts	0x0136, r26	; 0x800136 <timer0_overflow_count+0x2>
 402:	b0 93 37 01 	sts	0x0137, r27	; 0x800137 <timer0_overflow_count+0x3>
}
 406:	bf 91       	pop	r27
 408:	af 91       	pop	r26
 40a:	9f 91       	pop	r25
 40c:	8f 91       	pop	r24
 40e:	3f 91       	pop	r19
 410:	2f 91       	pop	r18
 412:	0f 90       	pop	r0
 414:	0f be       	out	0x3f, r0	; 63
 416:	0f 90       	pop	r0
 418:	1f 90       	pop	r1
 41a:	18 95       	reti

0000041c <__vector_19>:
#elif defined(USART_UDRE_vect)
ISR(USART_UDRE_vect)
#else
  #error "Don't know what the Data Register Empty vector is called for Serial"
#endif
{
 41c:	1f 92       	push	r1
 41e:	0f 92       	push	r0
 420:	0f b6       	in	r0, 0x3f	; 63
 422:	0f 92       	push	r0
 424:	11 24       	eor	r1, r1
 426:	2f 93       	push	r18
 428:	3f 93       	push	r19
 42a:	4f 93       	push	r20
 42c:	5f 93       	push	r21
 42e:	6f 93       	push	r22
 430:	7f 93       	push	r23
 432:	8f 93       	push	r24
 434:	9f 93       	push	r25
 436:	af 93       	push	r26
 438:	bf 93       	push	r27
 43a:	ef 93       	push	r30
 43c:	ff 93       	push	r31
  Serial._tx_udr_empty_irq();
 43e:	8d e3       	ldi	r24, 0x3D	; 61
 440:	91 e0       	ldi	r25, 0x01	; 1
 442:	0e 94 d4 00 	call	0x1a8	; 0x1a8 <_ZN14HardwareSerial17_tx_udr_empty_irqEv>
}
 446:	ff 91       	pop	r31
 448:	ef 91       	pop	r30
 44a:	bf 91       	pop	r27
 44c:	af 91       	pop	r26
 44e:	9f 91       	pop	r25
 450:	8f 91       	pop	r24
 452:	7f 91       	pop	r23
 454:	6f 91       	pop	r22
 456:	5f 91       	pop	r21
 458:	4f 91       	pop	r20
 45a:	3f 91       	pop	r19
 45c:	2f 91       	pop	r18
 45e:	0f 90       	pop	r0
 460:	0f be       	out	0x3f, r0	; 63
 462:	0f 90       	pop	r0
 464:	1f 90       	pop	r1
 466:	18 95       	reti

00000468 <__vector_18>:
#elif defined(USART_RXC_vect)
  ISR(USART_RXC_vect) // ATmega8
#else
  #error "Don't know what the Data Received vector is called for Serial"
#endif
  {
 468:	1f 92       	push	r1
 46a:	0f 92       	push	r0
 46c:	0f b6       	in	r0, 0x3f	; 63
 46e:	0f 92       	push	r0
 470:	11 24       	eor	r1, r1
 472:	2f 93       	push	r18
 474:	8f 93       	push	r24
 476:	9f 93       	push	r25
 478:	ef 93       	push	r30
 47a:	ff 93       	push	r31

// Actual interrupt handlers //////////////////////////////////////////////////////////////

void HardwareSerial::_rx_complete_irq(void)
{
  if (bit_is_clear(*_ucsra, UPE0)) {
 47c:	e0 91 4d 01 	lds	r30, 0x014D	; 0x80014d <Serial+0x10>
 480:	f0 91 4e 01 	lds	r31, 0x014E	; 0x80014e <Serial+0x11>
 484:	80 81       	ld	r24, Z
 486:	e0 91 53 01 	lds	r30, 0x0153	; 0x800153 <Serial+0x16>
 48a:	f0 91 54 01 	lds	r31, 0x0154	; 0x800154 <Serial+0x17>
 48e:	82 fd       	sbrc	r24, 2
 490:	12 c0       	rjmp	.+36     	; 0x4b6 <__vector_18+0x4e>
    // No Parity error, read byte and store it in the buffer if there is
    // room
    unsigned char c = *_udr;
 492:	90 81       	ld	r25, Z
    rx_buffer_index_t i = (unsigned int)(_rx_buffer_head + 1) % SERIAL_RX_BUFFER_SIZE;
 494:	80 91 56 01 	lds	r24, 0x0156	; 0x800156 <Serial+0x19>
 498:	8f 5f       	subi	r24, 0xFF	; 255
 49a:	8f 73       	andi	r24, 0x3F	; 63

    // if we should be storing the received character into the location
    // just before the tail (meaning that the head would advance to the
    // current location of the tail), we're about to overflow the buffer
    // and so we don't write the character or advance the head.
    if (i != _rx_buffer_tail) {
 49c:	20 91 57 01 	lds	r18, 0x0157	; 0x800157 <Serial+0x1a>
 4a0:	82 17       	cp	r24, r18
 4a2:	51 f0       	breq	.+20     	; 0x4b8 <__vector_18+0x50>
      _rx_buffer[_rx_buffer_head] = c;
 4a4:	e0 91 56 01 	lds	r30, 0x0156	; 0x800156 <Serial+0x19>
 4a8:	f0 e0       	ldi	r31, 0x00	; 0
 4aa:	e3 5c       	subi	r30, 0xC3	; 195
 4ac:	fe 4f       	sbci	r31, 0xFE	; 254
 4ae:	95 8f       	std	Z+29, r25	; 0x1d
      _rx_buffer_head = i;
 4b0:	80 93 56 01 	sts	0x0156, r24	; 0x800156 <Serial+0x19>
 4b4:	01 c0       	rjmp	.+2      	; 0x4b8 <__vector_18+0x50>
    }
  } else {
    // Parity error, read byte but discard it
    *_udr;
 4b6:	80 81       	ld	r24, Z
    Serial._rx_complete_irq();
  }
 4b8:	ff 91       	pop	r31
 4ba:	ef 91       	pop	r30
 4bc:	9f 91       	pop	r25
 4be:	8f 91       	pop	r24
 4c0:	2f 91       	pop	r18
 4c2:	0f 90       	pop	r0
 4c4:	0f be       	out	0x3f, r0	; 63
 4c6:	0f 90       	pop	r0
 4c8:	1f 90       	pop	r1
 4ca:	18 95       	reti

000004cc <main>:

void init()
{
	// this needs to be called before setup() or some functions won't
	// work there
	sei();
 4cc:	78 94       	sei
	
	// on the ATmega168, timer 0 is also used for fast hardware pwm
	// (using phase-correct PWM would mean that timer 0 overflowed half as often
	// resulting in different millis() behavior on the ATmega8 and ATmega168)
#if defined(TCCR0A) && defined(WGM01)
	sbi(TCCR0A, WGM01);
 4ce:	84 b5       	in	r24, 0x24	; 36
 4d0:	82 60       	ori	r24, 0x02	; 2
 4d2:	84 bd       	out	0x24, r24	; 36
	sbi(TCCR0A, WGM00);
 4d4:	84 b5       	in	r24, 0x24	; 36
 4d6:	81 60       	ori	r24, 0x01	; 1
 4d8:	84 bd       	out	0x24, r24	; 36
	// this combination is for the standard atmega8
	sbi(TCCR0, CS01);
	sbi(TCCR0, CS00);
#elif defined(TCCR0B) && defined(CS01) && defined(CS00)
	// this combination is for the standard 168/328/1280/2560
	sbi(TCCR0B, CS01);
 4da:	85 b5       	in	r24, 0x25	; 37
 4dc:	82 60       	ori	r24, 0x02	; 2
 4de:	85 bd       	out	0x25, r24	; 37
	sbi(TCCR0B, CS00);
 4e0:	85 b5       	in	r24, 0x25	; 37
 4e2:	81 60       	ori	r24, 0x01	; 1
 4e4:	85 bd       	out	0x25, r24	; 37

	// enable timer 0 overflow interrupt
#if defined(TIMSK) && defined(TOIE0)
	sbi(TIMSK, TOIE0);
#elif defined(TIMSK0) && defined(TOIE0)
	sbi(TIMSK0, TOIE0);
 4e6:	80 91 6e 00 	lds	r24, 0x006E	; 0x80006e <__TEXT_REGION_LENGTH__+0x7e006e>
 4ea:	81 60       	ori	r24, 0x01	; 1
 4ec:	80 93 6e 00 	sts	0x006E, r24	; 0x80006e <__TEXT_REGION_LENGTH__+0x7e006e>
	// this is better for motors as it ensures an even waveform
	// note, however, that fast pwm mode can achieve a frequency of up
	// 8 MHz (with a 16 MHz clock) at 50% duty cycle

#if defined(TCCR1B) && defined(CS11) && defined(CS10)
	TCCR1B = 0;
 4f0:	10 92 81 00 	sts	0x0081, r1	; 0x800081 <__TEXT_REGION_LENGTH__+0x7e0081>

	// set timer 1 prescale factor to 64
	sbi(TCCR1B, CS11);
 4f4:	80 91 81 00 	lds	r24, 0x0081	; 0x800081 <__TEXT_REGION_LENGTH__+0x7e0081>
 4f8:	82 60       	ori	r24, 0x02	; 2
 4fa:	80 93 81 00 	sts	0x0081, r24	; 0x800081 <__TEXT_REGION_LENGTH__+0x7e0081>
#if F_CPU >= 8000000L
	sbi(TCCR1B, CS10);
 4fe:	80 91 81 00 	lds	r24, 0x0081	; 0x800081 <__TEXT_REGION_LENGTH__+0x7e0081>
 502:	81 60       	ori	r24, 0x01	; 1
 504:	80 93 81 00 	sts	0x0081, r24	; 0x800081 <__TEXT_REGION_LENGTH__+0x7e0081>
	sbi(TCCR1, CS10);
#endif
#endif
	// put timer 1 in 8-bit phase correct pwm mode
#if defined(TCCR1A) && defined(WGM10)
	sbi(TCCR1A, WGM10);
 508:	80 91 80 00 	lds	r24, 0x0080	; 0x800080 <__TEXT_REGION_LENGTH__+0x7e0080>
 50c:	81 60       	ori	r24, 0x01	; 1
 50e:	80 93 80 00 	sts	0x0080, r24	; 0x800080 <__TEXT_REGION_LENGTH__+0x7e0080>

	// set timer 2 prescale factor to 64
#if defined(TCCR2) && defined(CS22)
	sbi(TCCR2, CS22);
#elif defined(TCCR2B) && defined(CS22)
	sbi(TCCR2B, CS22);
 512:	80 91 b1 00 	lds	r24, 0x00B1	; 0x8000b1 <__TEXT_REGION_LENGTH__+0x7e00b1>
 516:	84 60       	ori	r24, 0x04	; 4
 518:	80 93 b1 00 	sts	0x00B1, r24	; 0x8000b1 <__TEXT_REGION_LENGTH__+0x7e00b1>

	// configure timer 2 for phase correct pwm (8-bit)
#if defined(TCCR2) && defined(WGM20)
	sbi(TCCR2, WGM20);
#elif defined(TCCR2A) && defined(WGM20)
	sbi(TCCR2A, WGM20);
 51c:	80 91 b0 00 	lds	r24, 0x00B0	; 0x8000b0 <__TEXT_REGION_LENGTH__+0x7e00b0>
 520:	81 60       	ori	r24, 0x01	; 1
 522:	80 93 b0 00 	sts	0x00B0, r24	; 0x8000b0 <__TEXT_REGION_LENGTH__+0x7e00b0>
#endif

#if defined(ADCSRA)
	// set a2d prescaler so we are inside the desired 50-200 KHz range.
	#if F_CPU >= 16000000 // 16 MHz / 128 = 125 KHz
		sbi(ADCSRA, ADPS2);
 526:	80 91 7a 00 	lds	r24, 0x007A	; 0x80007a <__TEXT_REGION_LENGTH__+0x7e007a>
 52a:	84 60       	ori	r24, 0x04	; 4
 52c:	80 93 7a 00 	sts	0x007A, r24	; 0x80007a <__TEXT_REGION_LENGTH__+0x7e007a>
		sbi(ADCSRA, ADPS1);
 530:	80 91 7a 00 	lds	r24, 0x007A	; 0x80007a <__TEXT_REGION_LENGTH__+0x7e007a>
 534:	82 60       	ori	r24, 0x02	; 2
 536:	80 93 7a 00 	sts	0x007A, r24	; 0x80007a <__TEXT_REGION_LENGTH__+0x7e007a>
		sbi(ADCSRA, ADPS0);
 53a:	80 91 7a 00 	lds	r24, 0x007A	; 0x80007a <__TEXT_REGION_LENGTH__+0x7e007a>
 53e:	81 60       	ori	r24, 0x01	; 1
 540:	80 93 7a 00 	sts	0x007A, r24	; 0x80007a <__TEXT_REGION_LENGTH__+0x7e007a>
		cbi(ADCSRA, ADPS2);
		cbi(ADCSRA, ADPS1);
		sbi(ADCSRA, ADPS0);
	#endif
	// enable a2d conversions
	sbi(ADCSRA, ADEN);
 544:	80 91 7a 00 	lds	r24, 0x007A	; 0x80007a <__TEXT_REGION_LENGTH__+0x7e007a>
 548:	80 68       	ori	r24, 0x80	; 128
 54a:	80 93 7a 00 	sts	0x007A, r24	; 0x80007a <__TEXT_REGION_LENGTH__+0x7e007a>
	// here so they can be used as normal digital i/o; they will be
	// reconnected in Serial.begin()
#if defined(UCSRB)
	UCSRB = 0;
#elif defined(UCSR0B)
	UCSR0B = 0;
 54e:	10 92 c1 00 	sts	0x00C1, r1	; 0x8000c1 <__TEXT_REGION_LENGTH__+0x7e00c1>

void HardwareSerial::begin(unsigned long baud, byte config)
{
  // Try u2x mode first
  uint16_t baud_setting = (F_CPU / 4 / baud - 1) / 2;
  *_ucsra = 1 << U2X0;
 552:	e0 91 4d 01 	lds	r30, 0x014D	; 0x80014d <Serial+0x10>
 556:	f0 91 4e 01 	lds	r31, 0x014E	; 0x80014e <Serial+0x11>
 55a:	82 e0       	ldi	r24, 0x02	; 2
 55c:	80 83       	st	Z, r24
  // on the 8U2 on the Uno and Mega 2560. Also, The baud_setting cannot
  // be > 4095, so switch back to non-u2x mode if the baud rate is too
  // low.
  if (((F_CPU == 16000000UL) && (baud == 57600)) || (baud_setting >4095))
  {
    *_ucsra = 0;
 55e:	e0 91 4d 01 	lds	r30, 0x014D	; 0x80014d <Serial+0x10>
 562:	f0 91 4e 01 	lds	r31, 0x014E	; 0x80014e <Serial+0x11>
 566:	10 82       	st	Z, r1
    baud_setting = (F_CPU / 8 / baud - 1) / 2;
  }

  // assign the baud_setting, a.k.a. ubrr (USART Baud Rate Register)
  *_ubrrh = baud_setting >> 8;
 568:	e0 91 49 01 	lds	r30, 0x0149	; 0x800149 <Serial+0xc>
 56c:	f0 91 4a 01 	lds	r31, 0x014A	; 0x80014a <Serial+0xd>
 570:	10 82       	st	Z, r1
  *_ubrrl = baud_setting;
 572:	e0 91 4b 01 	lds	r30, 0x014B	; 0x80014b <Serial+0xe>
 576:	f0 91 4c 01 	lds	r31, 0x014C	; 0x80014c <Serial+0xf>
 57a:	80 e1       	ldi	r24, 0x10	; 16
 57c:	80 83       	st	Z, r24

  _written = false;
 57e:	10 92 55 01 	sts	0x0155, r1	; 0x800155 <Serial+0x18>

  //set the data bits, parity, and stop bits
#if defined(__AVR_ATmega8__)
  config |= 0x80; // select UCSRC register (shared with UBRRH)
#endif
  *_ucsrc = config;
 582:	e0 91 51 01 	lds	r30, 0x0151	; 0x800151 <Serial+0x14>
 586:	f0 91 52 01 	lds	r31, 0x0152	; 0x800152 <Serial+0x15>
 58a:	86 e0       	ldi	r24, 0x06	; 6
 58c:	80 83       	st	Z, r24
  
  sbi(*_ucsrb, RXEN0);
 58e:	e0 91 4f 01 	lds	r30, 0x014F	; 0x80014f <Serial+0x12>
 592:	f0 91 50 01 	lds	r31, 0x0150	; 0x800150 <Serial+0x13>
 596:	80 81       	ld	r24, Z
 598:	80 61       	ori	r24, 0x10	; 16
 59a:	80 83       	st	Z, r24
  sbi(*_ucsrb, TXEN0);
 59c:	e0 91 4f 01 	lds	r30, 0x014F	; 0x80014f <Serial+0x12>
 5a0:	f0 91 50 01 	lds	r31, 0x0150	; 0x800150 <Serial+0x13>
 5a4:	80 81       	ld	r24, Z
 5a6:	88 60       	ori	r24, 0x08	; 8
 5a8:	80 83       	st	Z, r24
  sbi(*_ucsrb, RXCIE0);
 5aa:	e0 91 4f 01 	lds	r30, 0x014F	; 0x80014f <Serial+0x12>
 5ae:	f0 91 50 01 	lds	r31, 0x0150	; 0x800150 <Serial+0x13>
 5b2:	80 81       	ld	r24, Z
 5b4:	80 68       	ori	r24, 0x80	; 128
 5b6:	80 83       	st	Z, r24
  cbi(*_ucsrb, UDRIE0);
 5b8:	e0 91 4f 01 	lds	r30, 0x014F	; 0x80014f <Serial+0x12>
 5bc:	f0 91 50 01 	lds	r31, 0x0150	; 0x800150 <Serial+0x13>
 5c0:	80 81       	ld	r24, Z
 5c2:	8f 7d       	andi	r24, 0xDF	; 223
 5c4:	80 83       	st	Z, r24
}

unsigned long millis()
{
	unsigned long m;
	uint8_t oldSREG = SREG;
 5c6:	2f b7       	in	r18, 0x3f	; 63

	// disable interrupts while we read timer0_millis or we might get an
	// inconsistent value (e.g. in the middle of a write to timer0_millis)
	cli();
 5c8:	f8 94       	cli
	m = timer0_millis;
 5ca:	80 91 39 01 	lds	r24, 0x0139	; 0x800139 <timer0_millis>
 5ce:	90 91 3a 01 	lds	r25, 0x013A	; 0x80013a <timer0_millis+0x1>
 5d2:	a0 91 3b 01 	lds	r26, 0x013B	; 0x80013b <timer0_millis+0x2>
 5d6:	b0 91 3c 01 	lds	r27, 0x013C	; 0x80013c <timer0_millis+0x3>
	SREG = oldSREG;
 5da:	2f bf       	out	0x3f, r18	; 63

void setup()
{
  Serial.begin(57600);         // 9600 bps
    
  _startTime_ms = millis();
 5dc:	80 93 30 01 	sts	0x0130, r24	; 0x800130 <__data_end>
 5e0:	90 93 31 01 	sts	0x0131, r25	; 0x800131 <__data_end+0x1>
 5e4:	a0 93 32 01 	sts	0x0132, r26	; 0x800132 <__data_end+0x2>
 5e8:	b0 93 33 01 	sts	0x0133, r27	; 0x800133 <__data_end+0x3>
}

void loop() 
{
  if (0 == _loopCounter--) {
 5ec:	80 91 00 01 	lds	r24, 0x0100	; 0x800100 <__data_start>
 5f0:	90 91 01 01 	lds	r25, 0x0101	; 0x800101 <__data_start+0x1>
 5f4:	a0 91 02 01 	lds	r26, 0x0102	; 0x800102 <__data_start+0x2>
 5f8:	b0 91 03 01 	lds	r27, 0x0103	; 0x800103 <__data_start+0x3>
 5fc:	ac 01       	movw	r20, r24
 5fe:	bd 01       	movw	r22, r26
 600:	41 50       	subi	r20, 0x01	; 1
 602:	51 09       	sbc	r21, r1
 604:	61 09       	sbc	r22, r1
 606:	71 09       	sbc	r23, r1
 608:	40 93 00 01 	sts	0x0100, r20	; 0x800100 <__data_start>
 60c:	50 93 01 01 	sts	0x0101, r21	; 0x800101 <__data_start+0x1>
 610:	60 93 02 01 	sts	0x0102, r22	; 0x800102 <__data_start+0x2>
 614:	70 93 03 01 	sts	0x0103, r23	; 0x800103 <__data_start+0x3>
 618:	89 2b       	or	r24, r25
 61a:	8a 2b       	or	r24, r26
 61c:	8b 2b       	or	r24, r27
 61e:	a9 f5       	brne	.+106    	; 0x68a <main+0x1be>
}

unsigned long millis()
{
	unsigned long m;
	uint8_t oldSREG = SREG;
 620:	8f b7       	in	r24, 0x3f	; 63

	// disable interrupts while we read timer0_millis or we might get an
	// inconsistent value (e.g. in the middle of a write to timer0_millis)
	cli();
 622:	f8 94       	cli
	m = timer0_millis;
 624:	c0 90 39 01 	lds	r12, 0x0139	; 0x800139 <timer0_millis>
 628:	d0 90 3a 01 	lds	r13, 0x013A	; 0x80013a <timer0_millis+0x1>
 62c:	e0 90 3b 01 	lds	r14, 0x013B	; 0x80013b <timer0_millis+0x2>
 630:	f0 90 3c 01 	lds	r15, 0x013C	; 0x80013c <timer0_millis+0x3>
	SREG = oldSREG;
 634:	8f bf       	out	0x3f, r24	; 63
  return write(s.c_str(), s.length());
}

size_t Print::print(const char str[])
{
  return write(str);
 636:	86 e1       	ldi	r24, 0x16	; 22
 638:	91 e0       	ldi	r25, 0x01	; 1
 63a:	0e 94 6f 01 	call	0x2de	; 0x2de <_ZN5Print5writeEPKc.constprop.14>
}

size_t Print::print(unsigned long n, int base)
{
  if (base == 0) return write(n);
  else return printNumber(n, base);
 63e:	4a e0       	ldi	r20, 0x0A	; 10
 640:	60 ec       	ldi	r22, 0xC0	; 192
 642:	76 ec       	ldi	r23, 0xC6	; 198
 644:	8d e2       	ldi	r24, 0x2D	; 45
 646:	90 e0       	ldi	r25, 0x00	; 0
 648:	0e 94 81 01 	call	0x302	; 0x302 <_ZN5Print11printNumberEmh.constprop.12>
  return write(s.c_str(), s.length());
}

size_t Print::print(const char str[])
{
  return write(str);
 64c:	8e e1       	ldi	r24, 0x1E	; 30
 64e:	91 e0       	ldi	r25, 0x01	; 1
 650:	0e 94 6f 01 	call	0x2de	; 0x2de <_ZN5Print5writeEPKc.constprop.14>
}

size_t Print::print(unsigned long n, int base)
{
  if (base == 0) return write(n);
  else return printNumber(n, base);
 654:	80 91 30 01 	lds	r24, 0x0130	; 0x800130 <__data_end>
 658:	90 91 31 01 	lds	r25, 0x0131	; 0x800131 <__data_end+0x1>
 65c:	a0 91 32 01 	lds	r26, 0x0132	; 0x800132 <__data_end+0x2>
 660:	b0 91 33 01 	lds	r27, 0x0133	; 0x800133 <__data_end+0x3>
 664:	a7 01       	movw	r20, r14
 666:	96 01       	movw	r18, r12
 668:	28 1b       	sub	r18, r24
 66a:	39 0b       	sbc	r19, r25
 66c:	4a 0b       	sbc	r20, r26
 66e:	5b 0b       	sbc	r21, r27
 670:	ca 01       	movw	r24, r20
 672:	b9 01       	movw	r22, r18
 674:	4a e0       	ldi	r20, 0x0A	; 10
 676:	0e 94 81 01 	call	0x302	; 0x302 <_ZN5Print11printNumberEmh.constprop.12>
  return write(s.c_str(), s.length());
}

size_t Print::print(const char str[])
{
  return write(str);
 67a:	87 e2       	ldi	r24, 0x27	; 39
 67c:	91 e0       	ldi	r25, 0x01	; 1
 67e:	0e 94 6f 01 	call	0x2de	; 0x2de <_ZN5Print5writeEPKc.constprop.14>
  return x.printTo(*this);
}

size_t Print::println(void)
{
  return write("\r\n");
 682:	8d e2       	ldi	r24, 0x2D	; 45
 684:	91 e0       	ldi	r25, 0x01	; 1
 686:	0e 94 6f 01 	call	0x2de	; 0x2de <_ZN5Print5writeEPKc.constprop.14>
	
	setup();
    
	for (;;) {
		loop();
		if (serialEventRun) serialEventRun();
 68a:	0e 94 65 01 	call	0x2ca	; 0x2ca <_Z14serialEventRunv>
 68e:	ae cf       	rjmp	.-164    	; 0x5ec <main+0x120>

00000690 <_GLOBAL__sub_I___vector_18>:
    size_t printNumber(unsigned long, uint8_t);
    size_t printFloat(double, uint8_t);
  protected:
    void setWriteError(int err = 1) { write_error = err; }
  public:
    Print() : write_error(0) {}
 690:	ed e3       	ldi	r30, 0x3D	; 61
 692:	f1 e0       	ldi	r31, 0x01	; 1
 694:	13 82       	std	Z+3, r1	; 0x03
 696:	12 82       	std	Z+2, r1	; 0x02
  public:
    virtual int available() = 0;
    virtual int read() = 0;
    virtual int peek() = 0;

    Stream() {_timeout=1000;}
 698:	88 ee       	ldi	r24, 0xE8	; 232
 69a:	93 e0       	ldi	r25, 0x03	; 3
 69c:	a0 e0       	ldi	r26, 0x00	; 0
 69e:	b0 e0       	ldi	r27, 0x00	; 0
 6a0:	84 83       	std	Z+4, r24	; 0x04
 6a2:	95 83       	std	Z+5, r25	; 0x05
 6a4:	a6 83       	std	Z+6, r26	; 0x06
 6a6:	b7 83       	std	Z+7, r27	; 0x07
  volatile uint8_t *ucsrc, volatile uint8_t *udr) :
    _ubrrh(ubrrh), _ubrrl(ubrrl),
    _ucsra(ucsra), _ucsrb(ucsrb), _ucsrc(ucsrc),
    _udr(udr),
    _rx_buffer_head(0), _rx_buffer_tail(0),
    _tx_buffer_head(0), _tx_buffer_tail(0)
 6a8:	88 e0       	ldi	r24, 0x08	; 8
 6aa:	91 e0       	ldi	r25, 0x01	; 1
 6ac:	91 83       	std	Z+1, r25	; 0x01
 6ae:	80 83       	st	Z, r24
 6b0:	85 ec       	ldi	r24, 0xC5	; 197
 6b2:	90 e0       	ldi	r25, 0x00	; 0
 6b4:	95 87       	std	Z+13, r25	; 0x0d
 6b6:	84 87       	std	Z+12, r24	; 0x0c
 6b8:	84 ec       	ldi	r24, 0xC4	; 196
 6ba:	90 e0       	ldi	r25, 0x00	; 0
 6bc:	97 87       	std	Z+15, r25	; 0x0f
 6be:	86 87       	std	Z+14, r24	; 0x0e
 6c0:	80 ec       	ldi	r24, 0xC0	; 192
 6c2:	90 e0       	ldi	r25, 0x00	; 0
 6c4:	91 8b       	std	Z+17, r25	; 0x11
 6c6:	80 8b       	std	Z+16, r24	; 0x10
 6c8:	81 ec       	ldi	r24, 0xC1	; 193
 6ca:	90 e0       	ldi	r25, 0x00	; 0
 6cc:	93 8b       	std	Z+19, r25	; 0x13
 6ce:	82 8b       	std	Z+18, r24	; 0x12
 6d0:	82 ec       	ldi	r24, 0xC2	; 194
 6d2:	90 e0       	ldi	r25, 0x00	; 0
 6d4:	95 8b       	std	Z+21, r25	; 0x15
 6d6:	84 8b       	std	Z+20, r24	; 0x14
 6d8:	86 ec       	ldi	r24, 0xC6	; 198
 6da:	90 e0       	ldi	r25, 0x00	; 0
 6dc:	97 8b       	std	Z+23, r25	; 0x17
 6de:	86 8b       	std	Z+22, r24	; 0x16
 6e0:	11 8e       	std	Z+25, r1	; 0x19
 6e2:	12 8e       	std	Z+26, r1	; 0x1a
 6e4:	13 8e       	std	Z+27, r1	; 0x1b
 6e6:	14 8e       	std	Z+28, r1	; 0x1c
 6e8:	08 95       	ret

000006ea <__udivmodsi4>:
 6ea:	a1 e2       	ldi	r26, 0x21	; 33
 6ec:	1a 2e       	mov	r1, r26
 6ee:	aa 1b       	sub	r26, r26
 6f0:	bb 1b       	sub	r27, r27
 6f2:	fd 01       	movw	r30, r26
 6f4:	0d c0       	rjmp	.+26     	; 0x710 <__udivmodsi4_ep>

000006f6 <__udivmodsi4_loop>:
 6f6:	aa 1f       	adc	r26, r26
 6f8:	bb 1f       	adc	r27, r27
 6fa:	ee 1f       	adc	r30, r30
 6fc:	ff 1f       	adc	r31, r31
 6fe:	a2 17       	cp	r26, r18
 700:	b3 07       	cpc	r27, r19
 702:	e4 07       	cpc	r30, r20
 704:	f5 07       	cpc	r31, r21
 706:	20 f0       	brcs	.+8      	; 0x710 <__udivmodsi4_ep>
 708:	a2 1b       	sub	r26, r18
 70a:	b3 0b       	sbc	r27, r19
 70c:	e4 0b       	sbc	r30, r20
 70e:	f5 0b       	sbc	r31, r21

00000710 <__udivmodsi4_ep>:
 710:	66 1f       	adc	r22, r22
 712:	77 1f       	adc	r23, r23
 714:	88 1f       	adc	r24, r24
 716:	99 1f       	adc	r25, r25
 718:	1a 94       	dec	r1
 71a:	69 f7       	brne	.-38     	; 0x6f6 <__udivmodsi4_loop>
 71c:	60 95       	com	r22
 71e:	70 95       	com	r23
 720:	80 95       	com	r24
 722:	90 95       	com	r25
 724:	9b 01       	movw	r18, r22
 726:	ac 01       	movw	r20, r24
 728:	bd 01       	movw	r22, r26
 72a:	cf 01       	movw	r24, r30
 72c:	08 95       	ret

0000072e <__tablejump2__>:
 72e:	ee 0f       	add	r30, r30
 730:	ff 1f       	adc	r31, r31
 732:	05 90       	lpm	r0, Z+
 734:	f4 91       	lpm	r31, Z
 736:	e0 2d       	mov	r30, r0
 738:	09 94       	ijmp

0000073a <abort>:
 73a:	81 e0       	ldi	r24, 0x01	; 1
 73c:	90 e0       	ldi	r25, 0x00	; 0
 73e:	f8 94       	cli
 740:	0c 94 a2 03 	jmp	0x744	; 0x744 <_exit>

00000744 <_exit>:
 744:	f8 94       	cli

00000746 <__stop_program>:
 746:	ff cf       	rjmp	.-2      	; 0x746 <__stop_program>
